
rtarget:     file format elf64-x86-64


Disassembly of section .init:

0000000000401000 <_init>:
  401000:	f3 0f 1e fa          	endbr64 
  401004:	48 83 ec 08          	sub    $0x8,%rsp
  401008:	48 8b 05 e9 5f 00 00 	mov    0x5fe9(%rip),%rax        # 406ff8 <__gmon_start__>
  40100f:	48 85 c0             	test   %rax,%rax
  401012:	74 02                	je     401016 <_init+0x16>
  401014:	ff d0                	call   *%rax
  401016:	48 83 c4 08          	add    $0x8,%rsp
  40101a:	c3                   	ret    

Disassembly of section .plt:

0000000000401020 <.plt>:
  401020:	ff 35 e2 5f 00 00    	push   0x5fe2(%rip)        # 407008 <_GLOBAL_OFFSET_TABLE_+0x8>
  401026:	f2 ff 25 e3 5f 00 00 	bnd jmp *0x5fe3(%rip)        # 407010 <_GLOBAL_OFFSET_TABLE_+0x10>
  40102d:	0f 1f 00             	nopl   (%rax)
  401030:	f3 0f 1e fa          	endbr64 
  401034:	68 00 00 00 00       	push   $0x0
  401039:	f2 e9 e1 ff ff ff    	bnd jmp 401020 <.plt>
  40103f:	90                   	nop
  401040:	f3 0f 1e fa          	endbr64 
  401044:	68 01 00 00 00       	push   $0x1
  401049:	f2 e9 d1 ff ff ff    	bnd jmp 401020 <.plt>
  40104f:	90                   	nop
  401050:	f3 0f 1e fa          	endbr64 
  401054:	68 02 00 00 00       	push   $0x2
  401059:	f2 e9 c1 ff ff ff    	bnd jmp 401020 <.plt>
  40105f:	90                   	nop
  401060:	f3 0f 1e fa          	endbr64 
  401064:	68 03 00 00 00       	push   $0x3
  401069:	f2 e9 b1 ff ff ff    	bnd jmp 401020 <.plt>
  40106f:	90                   	nop
  401070:	f3 0f 1e fa          	endbr64 
  401074:	68 04 00 00 00       	push   $0x4
  401079:	f2 e9 a1 ff ff ff    	bnd jmp 401020 <.plt>
  40107f:	90                   	nop
  401080:	f3 0f 1e fa          	endbr64 
  401084:	68 05 00 00 00       	push   $0x5
  401089:	f2 e9 91 ff ff ff    	bnd jmp 401020 <.plt>
  40108f:	90                   	nop
  401090:	f3 0f 1e fa          	endbr64 
  401094:	68 06 00 00 00       	push   $0x6
  401099:	f2 e9 81 ff ff ff    	bnd jmp 401020 <.plt>
  40109f:	90                   	nop
  4010a0:	f3 0f 1e fa          	endbr64 
  4010a4:	68 07 00 00 00       	push   $0x7
  4010a9:	f2 e9 71 ff ff ff    	bnd jmp 401020 <.plt>
  4010af:	90                   	nop
  4010b0:	f3 0f 1e fa          	endbr64 
  4010b4:	68 08 00 00 00       	push   $0x8
  4010b9:	f2 e9 61 ff ff ff    	bnd jmp 401020 <.plt>
  4010bf:	90                   	nop
  4010c0:	f3 0f 1e fa          	endbr64 
  4010c4:	68 09 00 00 00       	push   $0x9
  4010c9:	f2 e9 51 ff ff ff    	bnd jmp 401020 <.plt>
  4010cf:	90                   	nop
  4010d0:	f3 0f 1e fa          	endbr64 
  4010d4:	68 0a 00 00 00       	push   $0xa
  4010d9:	f2 e9 41 ff ff ff    	bnd jmp 401020 <.plt>
  4010df:	90                   	nop
  4010e0:	f3 0f 1e fa          	endbr64 
  4010e4:	68 0b 00 00 00       	push   $0xb
  4010e9:	f2 e9 31 ff ff ff    	bnd jmp 401020 <.plt>
  4010ef:	90                   	nop
  4010f0:	f3 0f 1e fa          	endbr64 
  4010f4:	68 0c 00 00 00       	push   $0xc
  4010f9:	f2 e9 21 ff ff ff    	bnd jmp 401020 <.plt>
  4010ff:	90                   	nop
  401100:	f3 0f 1e fa          	endbr64 
  401104:	68 0d 00 00 00       	push   $0xd
  401109:	f2 e9 11 ff ff ff    	bnd jmp 401020 <.plt>
  40110f:	90                   	nop
  401110:	f3 0f 1e fa          	endbr64 
  401114:	68 0e 00 00 00       	push   $0xe
  401119:	f2 e9 01 ff ff ff    	bnd jmp 401020 <.plt>
  40111f:	90                   	nop
  401120:	f3 0f 1e fa          	endbr64 
  401124:	68 0f 00 00 00       	push   $0xf
  401129:	f2 e9 f1 fe ff ff    	bnd jmp 401020 <.plt>
  40112f:	90                   	nop
  401130:	f3 0f 1e fa          	endbr64 
  401134:	68 10 00 00 00       	push   $0x10
  401139:	f2 e9 e1 fe ff ff    	bnd jmp 401020 <.plt>
  40113f:	90                   	nop
  401140:	f3 0f 1e fa          	endbr64 
  401144:	68 11 00 00 00       	push   $0x11
  401149:	f2 e9 d1 fe ff ff    	bnd jmp 401020 <.plt>
  40114f:	90                   	nop
  401150:	f3 0f 1e fa          	endbr64 
  401154:	68 12 00 00 00       	push   $0x12
  401159:	f2 e9 c1 fe ff ff    	bnd jmp 401020 <.plt>
  40115f:	90                   	nop
  401160:	f3 0f 1e fa          	endbr64 
  401164:	68 13 00 00 00       	push   $0x13
  401169:	f2 e9 b1 fe ff ff    	bnd jmp 401020 <.plt>
  40116f:	90                   	nop
  401170:	f3 0f 1e fa          	endbr64 
  401174:	68 14 00 00 00       	push   $0x14
  401179:	f2 e9 a1 fe ff ff    	bnd jmp 401020 <.plt>
  40117f:	90                   	nop
  401180:	f3 0f 1e fa          	endbr64 
  401184:	68 15 00 00 00       	push   $0x15
  401189:	f2 e9 91 fe ff ff    	bnd jmp 401020 <.plt>
  40118f:	90                   	nop
  401190:	f3 0f 1e fa          	endbr64 
  401194:	68 16 00 00 00       	push   $0x16
  401199:	f2 e9 81 fe ff ff    	bnd jmp 401020 <.plt>
  40119f:	90                   	nop
  4011a0:	f3 0f 1e fa          	endbr64 
  4011a4:	68 17 00 00 00       	push   $0x17
  4011a9:	f2 e9 71 fe ff ff    	bnd jmp 401020 <.plt>
  4011af:	90                   	nop
  4011b0:	f3 0f 1e fa          	endbr64 
  4011b4:	68 18 00 00 00       	push   $0x18
  4011b9:	f2 e9 61 fe ff ff    	bnd jmp 401020 <.plt>
  4011bf:	90                   	nop
  4011c0:	f3 0f 1e fa          	endbr64 
  4011c4:	68 19 00 00 00       	push   $0x19
  4011c9:	f2 e9 51 fe ff ff    	bnd jmp 401020 <.plt>
  4011cf:	90                   	nop
  4011d0:	f3 0f 1e fa          	endbr64 
  4011d4:	68 1a 00 00 00       	push   $0x1a
  4011d9:	f2 e9 41 fe ff ff    	bnd jmp 401020 <.plt>
  4011df:	90                   	nop
  4011e0:	f3 0f 1e fa          	endbr64 
  4011e4:	68 1b 00 00 00       	push   $0x1b
  4011e9:	f2 e9 31 fe ff ff    	bnd jmp 401020 <.plt>
  4011ef:	90                   	nop
  4011f0:	f3 0f 1e fa          	endbr64 
  4011f4:	68 1c 00 00 00       	push   $0x1c
  4011f9:	f2 e9 21 fe ff ff    	bnd jmp 401020 <.plt>
  4011ff:	90                   	nop
  401200:	f3 0f 1e fa          	endbr64 
  401204:	68 1d 00 00 00       	push   $0x1d
  401209:	f2 e9 11 fe ff ff    	bnd jmp 401020 <.plt>
  40120f:	90                   	nop
  401210:	f3 0f 1e fa          	endbr64 
  401214:	68 1e 00 00 00       	push   $0x1e
  401219:	f2 e9 01 fe ff ff    	bnd jmp 401020 <.plt>
  40121f:	90                   	nop
  401220:	f3 0f 1e fa          	endbr64 
  401224:	68 1f 00 00 00       	push   $0x1f
  401229:	f2 e9 f1 fd ff ff    	bnd jmp 401020 <.plt>
  40122f:	90                   	nop
  401230:	f3 0f 1e fa          	endbr64 
  401234:	68 20 00 00 00       	push   $0x20
  401239:	f2 e9 e1 fd ff ff    	bnd jmp 401020 <.plt>
  40123f:	90                   	nop
  401240:	f3 0f 1e fa          	endbr64 
  401244:	68 21 00 00 00       	push   $0x21
  401249:	f2 e9 d1 fd ff ff    	bnd jmp 401020 <.plt>
  40124f:	90                   	nop

Disassembly of section .plt.sec:

0000000000401250 <strcasecmp@plt>:
  401250:	f3 0f 1e fa          	endbr64 
  401254:	f2 ff 25 bd 5d 00 00 	bnd jmp *0x5dbd(%rip)        # 407018 <strcasecmp@GLIBC_2.2.5>
  40125b:	0f 1f 44 00 00       	nopl   0x0(%rax,%rax,1)

0000000000401260 <__errno_location@plt>:
  401260:	f3 0f 1e fa          	endbr64 
  401264:	f2 ff 25 b5 5d 00 00 	bnd jmp *0x5db5(%rip)        # 407020 <__errno_location@GLIBC_2.2.5>
  40126b:	0f 1f 44 00 00       	nopl   0x0(%rax,%rax,1)

0000000000401270 <srandom@plt>:
  401270:	f3 0f 1e fa          	endbr64 
  401274:	f2 ff 25 ad 5d 00 00 	bnd jmp *0x5dad(%rip)        # 407028 <srandom@GLIBC_2.2.5>
  40127b:	0f 1f 44 00 00       	nopl   0x0(%rax,%rax,1)

0000000000401280 <strncpy@plt>:
  401280:	f3 0f 1e fa          	endbr64 
  401284:	f2 ff 25 a5 5d 00 00 	bnd jmp *0x5da5(%rip)        # 407030 <strncpy@GLIBC_2.2.5>
  40128b:	0f 1f 44 00 00       	nopl   0x0(%rax,%rax,1)

0000000000401290 <strncmp@plt>:
  401290:	f3 0f 1e fa          	endbr64 
  401294:	f2 ff 25 9d 5d 00 00 	bnd jmp *0x5d9d(%rip)        # 407038 <strncmp@GLIBC_2.2.5>
  40129b:	0f 1f 44 00 00       	nopl   0x0(%rax,%rax,1)

00000000004012a0 <strcpy@plt>:
  4012a0:	f3 0f 1e fa          	endbr64 
  4012a4:	f2 ff 25 95 5d 00 00 	bnd jmp *0x5d95(%rip)        # 407040 <strcpy@GLIBC_2.2.5>
  4012ab:	0f 1f 44 00 00       	nopl   0x0(%rax,%rax,1)

00000000004012b0 <puts@plt>:
  4012b0:	f3 0f 1e fa          	endbr64 
  4012b4:	f2 ff 25 8d 5d 00 00 	bnd jmp *0x5d8d(%rip)        # 407048 <puts@GLIBC_2.2.5>
  4012bb:	0f 1f 44 00 00       	nopl   0x0(%rax,%rax,1)

00000000004012c0 <write@plt>:
  4012c0:	f3 0f 1e fa          	endbr64 
  4012c4:	f2 ff 25 85 5d 00 00 	bnd jmp *0x5d85(%rip)        # 407050 <write@GLIBC_2.2.5>
  4012cb:	0f 1f 44 00 00       	nopl   0x0(%rax,%rax,1)

00000000004012d0 <mmap@plt>:
  4012d0:	f3 0f 1e fa          	endbr64 
  4012d4:	f2 ff 25 7d 5d 00 00 	bnd jmp *0x5d7d(%rip)        # 407058 <mmap@GLIBC_2.2.5>
  4012db:	0f 1f 44 00 00       	nopl   0x0(%rax,%rax,1)

00000000004012e0 <memset@plt>:
  4012e0:	f3 0f 1e fa          	endbr64 
  4012e4:	f2 ff 25 75 5d 00 00 	bnd jmp *0x5d75(%rip)        # 407060 <memset@GLIBC_2.2.5>
  4012eb:	0f 1f 44 00 00       	nopl   0x0(%rax,%rax,1)

00000000004012f0 <alarm@plt>:
  4012f0:	f3 0f 1e fa          	endbr64 
  4012f4:	f2 ff 25 6d 5d 00 00 	bnd jmp *0x5d6d(%rip)        # 407068 <alarm@GLIBC_2.2.5>
  4012fb:	0f 1f 44 00 00       	nopl   0x0(%rax,%rax,1)

0000000000401300 <close@plt>:
  401300:	f3 0f 1e fa          	endbr64 
  401304:	f2 ff 25 65 5d 00 00 	bnd jmp *0x5d65(%rip)        # 407070 <close@GLIBC_2.2.5>
  40130b:	0f 1f 44 00 00       	nopl   0x0(%rax,%rax,1)

0000000000401310 <read@plt>:
  401310:	f3 0f 1e fa          	endbr64 
  401314:	f2 ff 25 5d 5d 00 00 	bnd jmp *0x5d5d(%rip)        # 407078 <read@GLIBC_2.2.5>
  40131b:	0f 1f 44 00 00       	nopl   0x0(%rax,%rax,1)

0000000000401320 <strcmp@plt>:
  401320:	f3 0f 1e fa          	endbr64 
  401324:	f2 ff 25 55 5d 00 00 	bnd jmp *0x5d55(%rip)        # 407080 <strcmp@GLIBC_2.2.5>
  40132b:	0f 1f 44 00 00       	nopl   0x0(%rax,%rax,1)

0000000000401330 <signal@plt>:
  401330:	f3 0f 1e fa          	endbr64 
  401334:	f2 ff 25 4d 5d 00 00 	bnd jmp *0x5d4d(%rip)        # 407088 <signal@GLIBC_2.2.5>
  40133b:	0f 1f 44 00 00       	nopl   0x0(%rax,%rax,1)

0000000000401340 <gethostbyname@plt>:
  401340:	f3 0f 1e fa          	endbr64 
  401344:	f2 ff 25 45 5d 00 00 	bnd jmp *0x5d45(%rip)        # 407090 <gethostbyname@GLIBC_2.2.5>
  40134b:	0f 1f 44 00 00       	nopl   0x0(%rax,%rax,1)

0000000000401350 <__memmove_chk@plt>:
  401350:	f3 0f 1e fa          	endbr64 
  401354:	f2 ff 25 3d 5d 00 00 	bnd jmp *0x5d3d(%rip)        # 407098 <__memmove_chk@GLIBC_2.3.4>
  40135b:	0f 1f 44 00 00       	nopl   0x0(%rax,%rax,1)

0000000000401360 <strtol@plt>:
  401360:	f3 0f 1e fa          	endbr64 
  401364:	f2 ff 25 35 5d 00 00 	bnd jmp *0x5d35(%rip)        # 4070a0 <strtol@GLIBC_2.2.5>
  40136b:	0f 1f 44 00 00       	nopl   0x0(%rax,%rax,1)

0000000000401370 <memcpy@plt>:
  401370:	f3 0f 1e fa          	endbr64 
  401374:	f2 ff 25 2d 5d 00 00 	bnd jmp *0x5d2d(%rip)        # 4070a8 <memcpy@GLIBC_2.14>
  40137b:	0f 1f 44 00 00       	nopl   0x0(%rax,%rax,1)

0000000000401380 <time@plt>:
  401380:	f3 0f 1e fa          	endbr64 
  401384:	f2 ff 25 25 5d 00 00 	bnd jmp *0x5d25(%rip)        # 4070b0 <time@GLIBC_2.2.5>
  40138b:	0f 1f 44 00 00       	nopl   0x0(%rax,%rax,1)

0000000000401390 <random@plt>:
  401390:	f3 0f 1e fa          	endbr64 
  401394:	f2 ff 25 1d 5d 00 00 	bnd jmp *0x5d1d(%rip)        # 4070b8 <random@GLIBC_2.2.5>
  40139b:	0f 1f 44 00 00       	nopl   0x0(%rax,%rax,1)

00000000004013a0 <__isoc99_sscanf@plt>:
  4013a0:	f3 0f 1e fa          	endbr64 
  4013a4:	f2 ff 25 15 5d 00 00 	bnd jmp *0x5d15(%rip)        # 4070c0 <__isoc99_sscanf@GLIBC_2.7>
  4013ab:	0f 1f 44 00 00       	nopl   0x0(%rax,%rax,1)

00000000004013b0 <munmap@plt>:
  4013b0:	f3 0f 1e fa          	endbr64 
  4013b4:	f2 ff 25 0d 5d 00 00 	bnd jmp *0x5d0d(%rip)        # 4070c8 <munmap@GLIBC_2.2.5>
  4013bb:	0f 1f 44 00 00       	nopl   0x0(%rax,%rax,1)

00000000004013c0 <__printf_chk@plt>:
  4013c0:	f3 0f 1e fa          	endbr64 
  4013c4:	f2 ff 25 05 5d 00 00 	bnd jmp *0x5d05(%rip)        # 4070d0 <__printf_chk@GLIBC_2.3.4>
  4013cb:	0f 1f 44 00 00       	nopl   0x0(%rax,%rax,1)

00000000004013d0 <fopen@plt>:
  4013d0:	f3 0f 1e fa          	endbr64 
  4013d4:	f2 ff 25 fd 5c 00 00 	bnd jmp *0x5cfd(%rip)        # 4070d8 <fopen@GLIBC_2.2.5>
  4013db:	0f 1f 44 00 00       	nopl   0x0(%rax,%rax,1)

00000000004013e0 <getopt@plt>:
  4013e0:	f3 0f 1e fa          	endbr64 
  4013e4:	f2 ff 25 f5 5c 00 00 	bnd jmp *0x5cf5(%rip)        # 4070e0 <getopt@GLIBC_2.2.5>
  4013eb:	0f 1f 44 00 00       	nopl   0x0(%rax,%rax,1)

00000000004013f0 <strtoul@plt>:
  4013f0:	f3 0f 1e fa          	endbr64 
  4013f4:	f2 ff 25 ed 5c 00 00 	bnd jmp *0x5ced(%rip)        # 4070e8 <strtoul@GLIBC_2.2.5>
  4013fb:	0f 1f 44 00 00       	nopl   0x0(%rax,%rax,1)

0000000000401400 <gethostname@plt>:
  401400:	f3 0f 1e fa          	endbr64 
  401404:	f2 ff 25 e5 5c 00 00 	bnd jmp *0x5ce5(%rip)        # 4070f0 <gethostname@GLIBC_2.2.5>
  40140b:	0f 1f 44 00 00       	nopl   0x0(%rax,%rax,1)

0000000000401410 <exit@plt>:
  401410:	f3 0f 1e fa          	endbr64 
  401414:	f2 ff 25 dd 5c 00 00 	bnd jmp *0x5cdd(%rip)        # 4070f8 <exit@GLIBC_2.2.5>
  40141b:	0f 1f 44 00 00       	nopl   0x0(%rax,%rax,1)

0000000000401420 <connect@plt>:
  401420:	f3 0f 1e fa          	endbr64 
  401424:	f2 ff 25 d5 5c 00 00 	bnd jmp *0x5cd5(%rip)        # 407100 <connect@GLIBC_2.2.5>
  40142b:	0f 1f 44 00 00       	nopl   0x0(%rax,%rax,1)

0000000000401430 <__fprintf_chk@plt>:
  401430:	f3 0f 1e fa          	endbr64 
  401434:	f2 ff 25 cd 5c 00 00 	bnd jmp *0x5ccd(%rip)        # 407108 <__fprintf_chk@GLIBC_2.3.4>
  40143b:	0f 1f 44 00 00       	nopl   0x0(%rax,%rax,1)

0000000000401440 <getc@plt>:
  401440:	f3 0f 1e fa          	endbr64 
  401444:	f2 ff 25 c5 5c 00 00 	bnd jmp *0x5cc5(%rip)        # 407110 <getc@GLIBC_2.2.5>
  40144b:	0f 1f 44 00 00       	nopl   0x0(%rax,%rax,1)

0000000000401450 <__sprintf_chk@plt>:
  401450:	f3 0f 1e fa          	endbr64 
  401454:	f2 ff 25 bd 5c 00 00 	bnd jmp *0x5cbd(%rip)        # 407118 <__sprintf_chk@GLIBC_2.3.4>
  40145b:	0f 1f 44 00 00       	nopl   0x0(%rax,%rax,1)

0000000000401460 <socket@plt>:
  401460:	f3 0f 1e fa          	endbr64 
  401464:	f2 ff 25 b5 5c 00 00 	bnd jmp *0x5cb5(%rip)        # 407120 <socket@GLIBC_2.2.5>
  40146b:	0f 1f 44 00 00       	nopl   0x0(%rax,%rax,1)

Disassembly of section .text:

0000000000401470 <_start>:
  401470:	f3 0f 1e fa          	endbr64 
  401474:	31 ed                	xor    %ebp,%ebp
  401476:	49 89 d1             	mov    %rdx,%r9
  401479:	5e                   	pop    %rsi
  40147a:	48 89 e2             	mov    %rsp,%rdx
  40147d:	48 83 e4 f0          	and    $0xfffffffffffffff0,%rsp
  401481:	50                   	push   %rax
  401482:	54                   	push   %rsp
  401483:	49 c7 c0 e0 39 40 00 	mov    $0x4039e0,%r8
  40148a:	48 c7 c1 70 39 40 00 	mov    $0x403970,%rcx
  401491:	48 c7 c7 99 17 40 00 	mov    $0x401799,%rdi
  401498:	ff 15 52 5b 00 00    	call   *0x5b52(%rip)        # 406ff0 <__libc_start_main@GLIBC_2.2.5>
  40149e:	f4                   	hlt    
  40149f:	90                   	nop

00000000004014a0 <_dl_relocate_static_pie>:
  4014a0:	f3 0f 1e fa          	endbr64 
  4014a4:	c3                   	ret    
  4014a5:	66 2e 0f 1f 84 00 00 	cs nopw 0x0(%rax,%rax,1)
  4014ac:	00 00 00 
  4014af:	90                   	nop

00000000004014b0 <deregister_tm_clones>:
  4014b0:	b8 b0 74 40 00       	mov    $0x4074b0,%eax
  4014b5:	48 3d b0 74 40 00    	cmp    $0x4074b0,%rax
  4014bb:	74 13                	je     4014d0 <deregister_tm_clones+0x20>
  4014bd:	b8 00 00 00 00       	mov    $0x0,%eax
  4014c2:	48 85 c0             	test   %rax,%rax
  4014c5:	74 09                	je     4014d0 <deregister_tm_clones+0x20>
  4014c7:	bf b0 74 40 00       	mov    $0x4074b0,%edi
  4014cc:	ff e0                	jmp    *%rax
  4014ce:	66 90                	xchg   %ax,%ax
  4014d0:	c3                   	ret    
  4014d1:	66 66 2e 0f 1f 84 00 	data16 cs nopw 0x0(%rax,%rax,1)
  4014d8:	00 00 00 00 
  4014dc:	0f 1f 40 00          	nopl   0x0(%rax)

00000000004014e0 <register_tm_clones>:
  4014e0:	be b0 74 40 00       	mov    $0x4074b0,%esi
  4014e5:	48 81 ee b0 74 40 00 	sub    $0x4074b0,%rsi
  4014ec:	48 89 f0             	mov    %rsi,%rax
  4014ef:	48 c1 ee 3f          	shr    $0x3f,%rsi
  4014f3:	48 c1 f8 03          	sar    $0x3,%rax
  4014f7:	48 01 c6             	add    %rax,%rsi
  4014fa:	48 d1 fe             	sar    %rsi
  4014fd:	74 11                	je     401510 <register_tm_clones+0x30>
  4014ff:	b8 00 00 00 00       	mov    $0x0,%eax
  401504:	48 85 c0             	test   %rax,%rax
  401507:	74 07                	je     401510 <register_tm_clones+0x30>
  401509:	bf b0 74 40 00       	mov    $0x4074b0,%edi
  40150e:	ff e0                	jmp    *%rax
  401510:	c3                   	ret    
  401511:	66 66 2e 0f 1f 84 00 	data16 cs nopw 0x0(%rax,%rax,1)
  401518:	00 00 00 00 
  40151c:	0f 1f 40 00          	nopl   0x0(%rax)

0000000000401520 <__do_global_dtors_aux>:
  401520:	f3 0f 1e fa          	endbr64 
  401524:	80 3d bd 5f 00 00 00 	cmpb   $0x0,0x5fbd(%rip)        # 4074e8 <completed.8060>
  40152b:	75 13                	jne    401540 <__do_global_dtors_aux+0x20>
  40152d:	55                   	push   %rbp
  40152e:	48 89 e5             	mov    %rsp,%rbp
  401531:	e8 7a ff ff ff       	call   4014b0 <deregister_tm_clones>
  401536:	c6 05 ab 5f 00 00 01 	movb   $0x1,0x5fab(%rip)        # 4074e8 <completed.8060>
  40153d:	5d                   	pop    %rbp
  40153e:	c3                   	ret    
  40153f:	90                   	nop
  401540:	c3                   	ret    
  401541:	66 66 2e 0f 1f 84 00 	data16 cs nopw 0x0(%rax,%rax,1)
  401548:	00 00 00 00 
  40154c:	0f 1f 40 00          	nopl   0x0(%rax)

0000000000401550 <frame_dummy>:
  401550:	f3 0f 1e fa          	endbr64 
  401554:	eb 8a                	jmp    4014e0 <register_tm_clones>

0000000000401556 <usage>:
  401556:	50                   	push   %rax
  401557:	58                   	pop    %rax
  401558:	48 83 ec 08          	sub    $0x8,%rsp
  40155c:	48 89 fa             	mov    %rdi,%rdx
  40155f:	83 3d c2 5f 00 00 00 	cmpl   $0x0,0x5fc2(%rip)        # 407528 <is_checker>
  401566:	74 50                	je     4015b8 <usage+0x62>
  401568:	48 8d 35 99 2a 00 00 	lea    0x2a99(%rip),%rsi        # 404008 <_IO_stdin_used+0x8>
  40156f:	bf 01 00 00 00       	mov    $0x1,%edi
  401574:	b8 00 00 00 00       	mov    $0x0,%eax
  401579:	e8 42 fe ff ff       	call   4013c0 <__printf_chk@plt>
  40157e:	48 8d 3d bb 2a 00 00 	lea    0x2abb(%rip),%rdi        # 404040 <_IO_stdin_used+0x40>
  401585:	e8 26 fd ff ff       	call   4012b0 <puts@plt>
  40158a:	48 8d 3d 3f 2c 00 00 	lea    0x2c3f(%rip),%rdi        # 4041d0 <_IO_stdin_used+0x1d0>
  401591:	e8 1a fd ff ff       	call   4012b0 <puts@plt>
  401596:	48 8d 3d cb 2a 00 00 	lea    0x2acb(%rip),%rdi        # 404068 <_IO_stdin_used+0x68>
  40159d:	e8 0e fd ff ff       	call   4012b0 <puts@plt>
  4015a2:	48 8d 3d 41 2c 00 00 	lea    0x2c41(%rip),%rdi        # 4041ea <_IO_stdin_used+0x1ea>
  4015a9:	e8 02 fd ff ff       	call   4012b0 <puts@plt>
  4015ae:	bf 00 00 00 00       	mov    $0x0,%edi
  4015b3:	e8 58 fe ff ff       	call   401410 <exit@plt>
  4015b8:	48 8d 35 47 2c 00 00 	lea    0x2c47(%rip),%rsi        # 404206 <_IO_stdin_used+0x206>
  4015bf:	bf 01 00 00 00       	mov    $0x1,%edi
  4015c4:	b8 00 00 00 00       	mov    $0x0,%eax
  4015c9:	e8 f2 fd ff ff       	call   4013c0 <__printf_chk@plt>
  4015ce:	48 8d 3d bb 2a 00 00 	lea    0x2abb(%rip),%rdi        # 404090 <_IO_stdin_used+0x90>
  4015d5:	e8 d6 fc ff ff       	call   4012b0 <puts@plt>
  4015da:	48 8d 3d d7 2a 00 00 	lea    0x2ad7(%rip),%rdi        # 4040b8 <_IO_stdin_used+0xb8>
  4015e1:	e8 ca fc ff ff       	call   4012b0 <puts@plt>
  4015e6:	48 8d 3d 37 2c 00 00 	lea    0x2c37(%rip),%rdi        # 404224 <_IO_stdin_used+0x224>
  4015ed:	e8 be fc ff ff       	call   4012b0 <puts@plt>
  4015f2:	eb ba                	jmp    4015ae <usage+0x58>

00000000004015f4 <initialize_target>:
  4015f4:	55                   	push   %rbp
  4015f5:	53                   	push   %rbx
  4015f6:	48 81 ec 00 10 00 00 	sub    $0x1000,%rsp
  4015fd:	48 83 0c 24 00       	orq    $0x0,(%rsp)
  401602:	48 81 ec 00 10 00 00 	sub    $0x1000,%rsp
  401609:	48 83 0c 24 00       	orq    $0x0,(%rsp)
  40160e:	48 81 ec 18 01 00 00 	sub    $0x118,%rsp
  401615:	89 f5                	mov    %esi,%ebp
  401617:	64 48 8b 04 25 28 00 	mov    %fs:0x28,%rax
  40161e:	00 00 
  401620:	48 89 84 24 08 21 00 	mov    %rax,0x2108(%rsp)
  401627:	00 
  401628:	31 c0                	xor    %eax,%eax
  40162a:	89 3d e8 5e 00 00    	mov    %edi,0x5ee8(%rip)        # 407518 <check_level>
  401630:	8b 3d 1a 5b 00 00    	mov    0x5b1a(%rip),%edi        # 407150 <target_id>
  401636:	e8 0d 23 00 00       	call   403948 <gencookie>
  40163b:	89 c7                	mov    %eax,%edi
  40163d:	89 05 e1 5e 00 00    	mov    %eax,0x5ee1(%rip)        # 407524 <cookie>
  401643:	e8 00 23 00 00       	call   403948 <gencookie>
  401648:	89 05 d2 5e 00 00    	mov    %eax,0x5ed2(%rip)        # 407520 <authkey>
  40164e:	8b 05 fc 5a 00 00    	mov    0x5afc(%rip),%eax        # 407150 <target_id>
  401654:	8d 78 01             	lea    0x1(%rax),%edi
  401657:	e8 14 fc ff ff       	call   401270 <srandom@plt>
  40165c:	e8 2f fd ff ff       	call   401390 <random@plt>
  401661:	48 89 c7             	mov    %rax,%rdi
  401664:	e8 9b 03 00 00       	call   401a04 <scramble>
  401669:	89 c3                	mov    %eax,%ebx
  40166b:	85 ed                	test   %ebp,%ebp
  40166d:	75 54                	jne    4016c3 <initialize_target+0xcf>
  40166f:	b8 00 00 00 00       	mov    $0x0,%eax
  401674:	01 d8                	add    %ebx,%eax
  401676:	0f b7 c0             	movzwl %ax,%eax
  401679:	8d 04 c5 00 01 00 00 	lea    0x100(,%rax,8),%eax
  401680:	89 c0                	mov    %eax,%eax
  401682:	48 89 05 1f 5e 00 00 	mov    %rax,0x5e1f(%rip)        # 4074a8 <buf_offset>
  401689:	c6 05 b8 6a 00 00 72 	movb   $0x72,0x6ab8(%rip)        # 408148 <target_prefix>
  401690:	83 3d 09 5e 00 00 00 	cmpl   $0x0,0x5e09(%rip)        # 4074a0 <notify>
  401697:	74 09                	je     4016a2 <initialize_target+0xae>
  401699:	83 3d 88 5e 00 00 00 	cmpl   $0x0,0x5e88(%rip)        # 407528 <is_checker>
  4016a0:	74 3a                	je     4016dc <initialize_target+0xe8>
  4016a2:	48 8b 84 24 08 21 00 	mov    0x2108(%rsp),%rax
  4016a9:	00 
  4016aa:	64 48 33 04 25 28 00 	xor    %fs:0x28,%rax
  4016b1:	00 00 
  4016b3:	0f 85 db 00 00 00    	jne    401794 <initialize_target+0x1a0>
  4016b9:	48 81 c4 18 21 00 00 	add    $0x2118,%rsp
  4016c0:	5b                   	pop    %rbx
  4016c1:	5d                   	pop    %rbp
  4016c2:	c3                   	ret    
  4016c3:	bf 00 00 00 00       	mov    $0x0,%edi
  4016c8:	e8 b3 fc ff ff       	call   401380 <time@plt>
  4016cd:	48 89 c7             	mov    %rax,%rdi
  4016d0:	e8 9b fb ff ff       	call   401270 <srandom@plt>
  4016d5:	e8 b6 fc ff ff       	call   401390 <random@plt>
  4016da:	eb 98                	jmp    401674 <initialize_target+0x80>
  4016dc:	48 89 e7             	mov    %rsp,%rdi
  4016df:	be 00 01 00 00       	mov    $0x100,%esi
  4016e4:	e8 17 fd ff ff       	call   401400 <gethostname@plt>
  4016e9:	89 c5                	mov    %eax,%ebp
  4016eb:	85 c0                	test   %eax,%eax
  4016ed:	75 26                	jne    401715 <initialize_target+0x121>
  4016ef:	89 c3                	mov    %eax,%ebx
  4016f1:	48 63 c3             	movslq %ebx,%rax
  4016f4:	48 8d 15 85 5a 00 00 	lea    0x5a85(%rip),%rdx        # 407180 <host_table>
  4016fb:	48 8b 3c c2          	mov    (%rdx,%rax,8),%rdi
  4016ff:	48 85 ff             	test   %rdi,%rdi
  401702:	74 2c                	je     401730 <initialize_target+0x13c>
  401704:	48 89 e6             	mov    %rsp,%rsi
  401707:	e8 44 fb ff ff       	call   401250 <strcasecmp@plt>
  40170c:	85 c0                	test   %eax,%eax
  40170e:	74 1b                	je     40172b <initialize_target+0x137>
  401710:	83 c3 01             	add    $0x1,%ebx
  401713:	eb dc                	jmp    4016f1 <initialize_target+0xfd>
  401715:	48 8d 3d cc 29 00 00 	lea    0x29cc(%rip),%rdi        # 4040e8 <_IO_stdin_used+0xe8>
  40171c:	e8 8f fb ff ff       	call   4012b0 <puts@plt>
  401721:	bf 08 00 00 00       	mov    $0x8,%edi
  401726:	e8 e5 fc ff ff       	call   401410 <exit@plt>
  40172b:	bd 01 00 00 00       	mov    $0x1,%ebp
  401730:	85 ed                	test   %ebp,%ebp
  401732:	74 3d                	je     401771 <initialize_target+0x17d>
  401734:	48 8d bc 24 00 01 00 	lea    0x100(%rsp),%rdi
  40173b:	00 
  40173c:	e8 4c 1f 00 00       	call   40368d <init_driver>
  401741:	85 c0                	test   %eax,%eax
  401743:	0f 89 59 ff ff ff    	jns    4016a2 <initialize_target+0xae>
  401749:	48 8d 94 24 00 01 00 	lea    0x100(%rsp),%rdx
  401750:	00 
  401751:	48 8d 35 08 2a 00 00 	lea    0x2a08(%rip),%rsi        # 404160 <_IO_stdin_used+0x160>
  401758:	bf 01 00 00 00       	mov    $0x1,%edi
  40175d:	b8 00 00 00 00       	mov    $0x0,%eax
  401762:	e8 59 fc ff ff       	call   4013c0 <__printf_chk@plt>
  401767:	bf 08 00 00 00       	mov    $0x8,%edi
  40176c:	e8 9f fc ff ff       	call   401410 <exit@plt>
  401771:	48 89 e2             	mov    %rsp,%rdx
  401774:	48 8d 35 a5 29 00 00 	lea    0x29a5(%rip),%rsi        # 404120 <_IO_stdin_used+0x120>
  40177b:	bf 01 00 00 00       	mov    $0x1,%edi
  401780:	b8 00 00 00 00       	mov    $0x0,%eax
  401785:	e8 36 fc ff ff       	call   4013c0 <__printf_chk@plt>
  40178a:	bf 08 00 00 00       	mov    $0x8,%edi
  40178f:	e8 7c fc ff ff       	call   401410 <exit@plt>
  401794:	e8 16 12 00 00       	call   4029af <__stack_chk_fail>

0000000000401799 <main>:
  401799:	f3 0f 1e fa          	endbr64 
  40179d:	41 56                	push   %r14
  40179f:	41 55                	push   %r13
  4017a1:	41 54                	push   %r12
  4017a3:	55                   	push   %rbp
  4017a4:	53                   	push   %rbx
  4017a5:	48 83 ec 60          	sub    $0x60,%rsp
  4017a9:	89 fd                	mov    %edi,%ebp
  4017ab:	48 89 f3             	mov    %rsi,%rbx
  4017ae:	64 48 8b 04 25 28 00 	mov    %fs:0x28,%rax
  4017b5:	00 00 
  4017b7:	48 89 44 24 58       	mov    %rax,0x58(%rsp)
  4017bc:	31 c0                	xor    %eax,%eax
  4017be:	48 b8 53 70 69 72 69 	movabs $0x6465746972697053,%rax
  4017c5:	74 65 64 
  4017c8:	48 89 04 24          	mov    %rax,(%rsp)
  4017cc:	c7 44 24 08 41 77 61 	movl   $0x79617741,0x8(%rsp)
  4017d3:	79 
  4017d4:	66 c7 44 24 0c 43 4e 	movw   $0x4e43,0xc(%rsp)
  4017db:	c6 44 24 0e 00       	movb   $0x0,0xe(%rsp)
  4017e0:	48 c7 c6 9e 28 40 00 	mov    $0x40289e,%rsi
  4017e7:	bf 0b 00 00 00       	mov    $0xb,%edi
  4017ec:	e8 3f fb ff ff       	call   401330 <signal@plt>
  4017f1:	48 c7 c6 44 28 40 00 	mov    $0x402844,%rsi
  4017f8:	bf 07 00 00 00       	mov    $0x7,%edi
  4017fd:	e8 2e fb ff ff       	call   401330 <signal@plt>
  401802:	48 c7 c6 f8 28 40 00 	mov    $0x4028f8,%rsi
  401809:	bf 04 00 00 00       	mov    $0x4,%edi
  40180e:	e8 1d fb ff ff       	call   401330 <signal@plt>
  401813:	83 3d 0e 5d 00 00 00 	cmpl   $0x0,0x5d0e(%rip)        # 407528 <is_checker>
  40181a:	75 26                	jne    401842 <main+0xa9>
  40181c:	4c 8d 25 24 2a 00 00 	lea    0x2a24(%rip),%r12        # 404247 <_IO_stdin_used+0x247>
  401823:	48 8b 05 96 5c 00 00 	mov    0x5c96(%rip),%rax        # 4074c0 <stdin@GLIBC_2.2.5>
  40182a:	48 89 05 df 5c 00 00 	mov    %rax,0x5cdf(%rip)        # 407510 <infile>
  401831:	41 bd 00 00 00 00    	mov    $0x0,%r13d
  401837:	41 be 00 00 00 00    	mov    $0x0,%r14d
  40183d:	e9 8d 00 00 00       	jmp    4018cf <main+0x136>
  401842:	48 c7 c6 52 29 40 00 	mov    $0x402952,%rsi
  401849:	bf 0e 00 00 00       	mov    $0xe,%edi
  40184e:	e8 dd fa ff ff       	call   401330 <signal@plt>
  401853:	bf 02 00 00 00       	mov    $0x2,%edi
  401858:	e8 93 fa ff ff       	call   4012f0 <alarm@plt>
  40185d:	4c 8d 25 d9 29 00 00 	lea    0x29d9(%rip),%r12        # 40423d <_IO_stdin_used+0x23d>
  401864:	eb bd                	jmp    401823 <main+0x8a>
  401866:	48 8b 3b             	mov    (%rbx),%rdi
  401869:	e8 e8 fc ff ff       	call   401556 <usage>
  40186e:	48 8d 35 9f 2a 00 00 	lea    0x2a9f(%rip),%rsi        # 404314 <_IO_stdin_used+0x314>
  401875:	48 8b 3d 4c 5c 00 00 	mov    0x5c4c(%rip),%rdi        # 4074c8 <optarg@GLIBC_2.2.5>
  40187c:	e8 4f fb ff ff       	call   4013d0 <fopen@plt>
  401881:	48 89 05 88 5c 00 00 	mov    %rax,0x5c88(%rip)        # 407510 <infile>
  401888:	48 85 c0             	test   %rax,%rax
  40188b:	75 42                	jne    4018cf <main+0x136>
  40188d:	48 8b 0d 34 5c 00 00 	mov    0x5c34(%rip),%rcx        # 4074c8 <optarg@GLIBC_2.2.5>
  401894:	48 8d 15 b1 29 00 00 	lea    0x29b1(%rip),%rdx        # 40424c <_IO_stdin_used+0x24c>
  40189b:	be 01 00 00 00       	mov    $0x1,%esi
  4018a0:	48 8b 3d 39 5c 00 00 	mov    0x5c39(%rip),%rdi        # 4074e0 <stderr@GLIBC_2.2.5>
  4018a7:	e8 84 fb ff ff       	call   401430 <__fprintf_chk@plt>
  4018ac:	b8 01 00 00 00       	mov    $0x1,%eax
  4018b1:	e9 2c 01 00 00       	jmp    4019e2 <main+0x249>
  4018b6:	ba 10 00 00 00       	mov    $0x10,%edx
  4018bb:	be 00 00 00 00       	mov    $0x0,%esi
  4018c0:	48 8b 3d 01 5c 00 00 	mov    0x5c01(%rip),%rdi        # 4074c8 <optarg@GLIBC_2.2.5>
  4018c7:	e8 24 fb ff ff       	call   4013f0 <strtoul@plt>
  4018cc:	41 89 c6             	mov    %eax,%r14d
  4018cf:	4c 89 e2             	mov    %r12,%rdx
  4018d2:	48 89 de             	mov    %rbx,%rsi
  4018d5:	89 ef                	mov    %ebp,%edi
  4018d7:	e8 04 fb ff ff       	call   4013e0 <getopt@plt>
  4018dc:	3c ff                	cmp    $0xff,%al
  4018de:	74 7b                	je     40195b <main+0x1c2>
  4018e0:	0f be c8             	movsbl %al,%ecx
  4018e3:	83 e8 61             	sub    $0x61,%eax
  4018e6:	3c 14                	cmp    $0x14,%al
  4018e8:	77 51                	ja     40193b <main+0x1a2>
  4018ea:	0f b6 c0             	movzbl %al,%eax
  4018ed:	48 8d 15 98 29 00 00 	lea    0x2998(%rip),%rdx        # 40428c <_IO_stdin_used+0x28c>
  4018f4:	48 63 04 82          	movslq (%rdx,%rax,4),%rax
  4018f8:	48 01 d0             	add    %rdx,%rax
  4018fb:	3e ff e0             	notrack jmp *%rax
  4018fe:	ba 0a 00 00 00       	mov    $0xa,%edx
  401903:	be 00 00 00 00       	mov    $0x0,%esi
  401908:	48 8b 3d b9 5b 00 00 	mov    0x5bb9(%rip),%rdi        # 4074c8 <optarg@GLIBC_2.2.5>
  40190f:	e8 4c fa ff ff       	call   401360 <strtol@plt>
  401914:	41 89 c5             	mov    %eax,%r13d
  401917:	eb b6                	jmp    4018cf <main+0x136>
  401919:	c7 05 7d 5b 00 00 00 	movl   $0x0,0x5b7d(%rip)        # 4074a0 <notify>
  401920:	00 00 00 
  401923:	eb aa                	jmp    4018cf <main+0x136>
  401925:	48 89 e7             	mov    %rsp,%rdi
  401928:	ba 50 00 00 00       	mov    $0x50,%edx
  40192d:	48 8b 35 94 5b 00 00 	mov    0x5b94(%rip),%rsi        # 4074c8 <optarg@GLIBC_2.2.5>
  401934:	e8 47 f9 ff ff       	call   401280 <strncpy@plt>
  401939:	eb 94                	jmp    4018cf <main+0x136>
  40193b:	89 ca                	mov    %ecx,%edx
  40193d:	48 8d 35 25 29 00 00 	lea    0x2925(%rip),%rsi        # 404269 <_IO_stdin_used+0x269>
  401944:	bf 01 00 00 00       	mov    $0x1,%edi
  401949:	b8 00 00 00 00       	mov    $0x0,%eax
  40194e:	e8 6d fa ff ff       	call   4013c0 <__printf_chk@plt>
  401953:	48 8b 3b             	mov    (%rbx),%rdi
  401956:	e8 fb fb ff ff       	call   401556 <usage>
  40195b:	be 01 00 00 00       	mov    $0x1,%esi
  401960:	44 89 ef             	mov    %r13d,%edi
  401963:	e8 8c fc ff ff       	call   4015f4 <initialize_target>
  401968:	83 3d b9 5b 00 00 00 	cmpl   $0x0,0x5bb9(%rip)        # 407528 <is_checker>
  40196f:	74 3f                	je     4019b0 <main+0x217>
  401971:	44 39 35 a8 5b 00 00 	cmp    %r14d,0x5ba8(%rip)        # 407520 <authkey>
  401978:	75 13                	jne    40198d <main+0x1f4>
  40197a:	48 89 e7             	mov    %rsp,%rdi
  40197d:	48 8b 35 dc 57 00 00 	mov    0x57dc(%rip),%rsi        # 407160 <user_id>
  401984:	e8 97 f9 ff ff       	call   401320 <strcmp@plt>
  401989:	85 c0                	test   %eax,%eax
  40198b:	74 23                	je     4019b0 <main+0x217>
  40198d:	44 89 f2             	mov    %r14d,%edx
  401990:	48 8d 35 f1 27 00 00 	lea    0x27f1(%rip),%rsi        # 404188 <_IO_stdin_used+0x188>
  401997:	bf 01 00 00 00       	mov    $0x1,%edi
  40199c:	b8 00 00 00 00       	mov    $0x0,%eax
  4019a1:	e8 1a fa ff ff       	call   4013c0 <__printf_chk@plt>
  4019a6:	b8 00 00 00 00       	mov    $0x0,%eax
  4019ab:	e8 dd 0a 00 00       	call   40248d <check_fail>
  4019b0:	8b 15 6e 5b 00 00    	mov    0x5b6e(%rip),%edx        # 407524 <cookie>
  4019b6:	48 8d 35 bf 28 00 00 	lea    0x28bf(%rip),%rsi        # 40427c <_IO_stdin_used+0x27c>
  4019bd:	bf 01 00 00 00       	mov    $0x1,%edi
  4019c2:	b8 00 00 00 00       	mov    $0x0,%eax
  4019c7:	e8 f4 f9 ff ff       	call   4013c0 <__printf_chk@plt>
  4019cc:	be 00 00 00 00       	mov    $0x0,%esi
  4019d1:	48 8b 3d d0 5a 00 00 	mov    0x5ad0(%rip),%rdi        # 4074a8 <buf_offset>
  4019d8:	e8 2c 10 00 00       	call   402a09 <launch>
  4019dd:	b8 00 00 00 00       	mov    $0x0,%eax
  4019e2:	48 8b 4c 24 58       	mov    0x58(%rsp),%rcx
  4019e7:	64 48 33 0c 25 28 00 	xor    %fs:0x28,%rcx
  4019ee:	00 00 
  4019f0:	75 0d                	jne    4019ff <main+0x266>
  4019f2:	48 83 c4 60          	add    $0x60,%rsp
  4019f6:	5b                   	pop    %rbx
  4019f7:	5d                   	pop    %rbp
  4019f8:	41 5c                	pop    %r12
  4019fa:	41 5d                	pop    %r13
  4019fc:	41 5e                	pop    %r14
  4019fe:	c3                   	ret    
  4019ff:	e8 ab 0f 00 00       	call   4029af <__stack_chk_fail>

0000000000401a04 <scramble>:
  401a04:	f3 0f 1e fa          	endbr64 
  401a08:	48 83 ec 38          	sub    $0x38,%rsp
  401a0c:	64 48 8b 04 25 28 00 	mov    %fs:0x28,%rax
  401a13:	00 00 
  401a15:	48 89 44 24 28       	mov    %rax,0x28(%rsp)
  401a1a:	31 c0                	xor    %eax,%eax
  401a1c:	83 f8 09             	cmp    $0x9,%eax
  401a1f:	77 12                	ja     401a33 <scramble+0x2f>
  401a21:	69 d0 48 27 00 00    	imul   $0x2748,%eax,%edx
  401a27:	01 fa                	add    %edi,%edx
  401a29:	89 c1                	mov    %eax,%ecx
  401a2b:	89 14 8c             	mov    %edx,(%rsp,%rcx,4)
  401a2e:	83 c0 01             	add    $0x1,%eax
  401a31:	eb e9                	jmp    401a1c <scramble+0x18>
  401a33:	8b 44 24 20          	mov    0x20(%rsp),%eax
  401a37:	69 c0 d3 1e 00 00    	imul   $0x1ed3,%eax,%eax
  401a3d:	89 44 24 20          	mov    %eax,0x20(%rsp)
  401a41:	8b 44 24 0c          	mov    0xc(%rsp),%eax
  401a45:	69 c0 5d 76 00 00    	imul   $0x765d,%eax,%eax
  401a4b:	89 44 24 0c          	mov    %eax,0xc(%rsp)
  401a4f:	8b 04 24             	mov    (%rsp),%eax
  401a52:	69 c0 f1 46 00 00    	imul   $0x46f1,%eax,%eax
  401a58:	89 04 24             	mov    %eax,(%rsp)
  401a5b:	8b 04 24             	mov    (%rsp),%eax
  401a5e:	69 c0 73 d2 00 00    	imul   $0xd273,%eax,%eax
  401a64:	89 04 24             	mov    %eax,(%rsp)
  401a67:	8b 44 24 1c          	mov    0x1c(%rsp),%eax
  401a6b:	69 c0 7c 4b 00 00    	imul   $0x4b7c,%eax,%eax
  401a71:	89 44 24 1c          	mov    %eax,0x1c(%rsp)
  401a75:	8b 04 24             	mov    (%rsp),%eax
  401a78:	69 c0 98 e3 00 00    	imul   $0xe398,%eax,%eax
  401a7e:	89 04 24             	mov    %eax,(%rsp)
  401a81:	8b 44 24 10          	mov    0x10(%rsp),%eax
  401a85:	69 c0 5d a6 00 00    	imul   $0xa65d,%eax,%eax
  401a8b:	89 44 24 10          	mov    %eax,0x10(%rsp)
  401a8f:	8b 44 24 04          	mov    0x4(%rsp),%eax
  401a93:	69 c0 3e de 00 00    	imul   $0xde3e,%eax,%eax
  401a99:	89 44 24 04          	mov    %eax,0x4(%rsp)
  401a9d:	8b 44 24 24          	mov    0x24(%rsp),%eax
  401aa1:	69 c0 fe b9 00 00    	imul   $0xb9fe,%eax,%eax
  401aa7:	89 44 24 24          	mov    %eax,0x24(%rsp)
  401aab:	8b 44 24 08          	mov    0x8(%rsp),%eax
  401aaf:	69 c0 34 cf 00 00    	imul   $0xcf34,%eax,%eax
  401ab5:	89 44 24 08          	mov    %eax,0x8(%rsp)
  401ab9:	8b 44 24 14          	mov    0x14(%rsp),%eax
  401abd:	69 c0 01 a8 00 00    	imul   $0xa801,%eax,%eax
  401ac3:	89 44 24 14          	mov    %eax,0x14(%rsp)
  401ac7:	8b 44 24 24          	mov    0x24(%rsp),%eax
  401acb:	69 c0 b3 7a 00 00    	imul   $0x7ab3,%eax,%eax
  401ad1:	89 44 24 24          	mov    %eax,0x24(%rsp)
  401ad5:	8b 44 24 04          	mov    0x4(%rsp),%eax
  401ad9:	69 c0 f9 63 00 00    	imul   $0x63f9,%eax,%eax
  401adf:	89 44 24 04          	mov    %eax,0x4(%rsp)
  401ae3:	8b 44 24 04          	mov    0x4(%rsp),%eax
  401ae7:	69 c0 6a 38 00 00    	imul   $0x386a,%eax,%eax
  401aed:	89 44 24 04          	mov    %eax,0x4(%rsp)
  401af1:	8b 44 24 08          	mov    0x8(%rsp),%eax
  401af5:	69 c0 92 d4 00 00    	imul   $0xd492,%eax,%eax
  401afb:	89 44 24 08          	mov    %eax,0x8(%rsp)
  401aff:	8b 44 24 1c          	mov    0x1c(%rsp),%eax
  401b03:	69 c0 a0 8f 00 00    	imul   $0x8fa0,%eax,%eax
  401b09:	89 44 24 1c          	mov    %eax,0x1c(%rsp)
  401b0d:	8b 44 24 14          	mov    0x14(%rsp),%eax
  401b11:	69 c0 df 6b 00 00    	imul   $0x6bdf,%eax,%eax
  401b17:	89 44 24 14          	mov    %eax,0x14(%rsp)
  401b1b:	8b 44 24 10          	mov    0x10(%rsp),%eax
  401b1f:	69 c0 a0 7e 00 00    	imul   $0x7ea0,%eax,%eax
  401b25:	89 44 24 10          	mov    %eax,0x10(%rsp)
  401b29:	8b 44 24 20          	mov    0x20(%rsp),%eax
  401b2d:	69 c0 e1 ac 00 00    	imul   $0xace1,%eax,%eax
  401b33:	89 44 24 20          	mov    %eax,0x20(%rsp)
  401b37:	8b 44 24 08          	mov    0x8(%rsp),%eax
  401b3b:	69 c0 b1 dc 00 00    	imul   $0xdcb1,%eax,%eax
  401b41:	89 44 24 08          	mov    %eax,0x8(%rsp)
  401b45:	8b 44 24 1c          	mov    0x1c(%rsp),%eax
  401b49:	69 c0 65 7b 00 00    	imul   $0x7b65,%eax,%eax
  401b4f:	89 44 24 1c          	mov    %eax,0x1c(%rsp)
  401b53:	8b 04 24             	mov    (%rsp),%eax
  401b56:	69 c0 0c 92 00 00    	imul   $0x920c,%eax,%eax
  401b5c:	89 04 24             	mov    %eax,(%rsp)
  401b5f:	8b 44 24 18          	mov    0x18(%rsp),%eax
  401b63:	69 c0 c7 bb 00 00    	imul   $0xbbc7,%eax,%eax
  401b69:	89 44 24 18          	mov    %eax,0x18(%rsp)
  401b6d:	8b 44 24 20          	mov    0x20(%rsp),%eax
  401b71:	69 c0 39 a7 00 00    	imul   $0xa739,%eax,%eax
  401b77:	89 44 24 20          	mov    %eax,0x20(%rsp)
  401b7b:	8b 44 24 24          	mov    0x24(%rsp),%eax
  401b7f:	69 c0 8d 23 00 00    	imul   $0x238d,%eax,%eax
  401b85:	89 44 24 24          	mov    %eax,0x24(%rsp)
  401b89:	8b 44 24 08          	mov    0x8(%rsp),%eax
  401b8d:	69 c0 cc 2f 00 00    	imul   $0x2fcc,%eax,%eax
  401b93:	89 44 24 08          	mov    %eax,0x8(%rsp)
  401b97:	8b 44 24 14          	mov    0x14(%rsp),%eax
  401b9b:	69 c0 39 f1 00 00    	imul   $0xf139,%eax,%eax
  401ba1:	89 44 24 14          	mov    %eax,0x14(%rsp)
  401ba5:	8b 44 24 20          	mov    0x20(%rsp),%eax
  401ba9:	69 c0 21 a0 00 00    	imul   $0xa021,%eax,%eax
  401baf:	89 44 24 20          	mov    %eax,0x20(%rsp)
  401bb3:	8b 44 24 1c          	mov    0x1c(%rsp),%eax
  401bb7:	69 c0 0f 94 00 00    	imul   $0x940f,%eax,%eax
  401bbd:	89 44 24 1c          	mov    %eax,0x1c(%rsp)
  401bc1:	8b 44 24 1c          	mov    0x1c(%rsp),%eax
  401bc5:	69 c0 8a bd 00 00    	imul   $0xbd8a,%eax,%eax
  401bcb:	89 44 24 1c          	mov    %eax,0x1c(%rsp)
  401bcf:	8b 44 24 18          	mov    0x18(%rsp),%eax
  401bd3:	69 c0 da 2f 00 00    	imul   $0x2fda,%eax,%eax
  401bd9:	89 44 24 18          	mov    %eax,0x18(%rsp)
  401bdd:	8b 44 24 14          	mov    0x14(%rsp),%eax
  401be1:	69 c0 07 5c 00 00    	imul   $0x5c07,%eax,%eax
  401be7:	89 44 24 14          	mov    %eax,0x14(%rsp)
  401beb:	8b 44 24 24          	mov    0x24(%rsp),%eax
  401bef:	69 c0 27 53 00 00    	imul   $0x5327,%eax,%eax
  401bf5:	89 44 24 24          	mov    %eax,0x24(%rsp)
  401bf9:	8b 44 24 20          	mov    0x20(%rsp),%eax
  401bfd:	69 c0 89 4e 00 00    	imul   $0x4e89,%eax,%eax
  401c03:	89 44 24 20          	mov    %eax,0x20(%rsp)
  401c07:	8b 44 24 18          	mov    0x18(%rsp),%eax
  401c0b:	69 c0 bb 2b 00 00    	imul   $0x2bbb,%eax,%eax
  401c11:	89 44 24 18          	mov    %eax,0x18(%rsp)
  401c15:	8b 44 24 20          	mov    0x20(%rsp),%eax
  401c19:	69 c0 66 f8 00 00    	imul   $0xf866,%eax,%eax
  401c1f:	89 44 24 20          	mov    %eax,0x20(%rsp)
  401c23:	8b 44 24 18          	mov    0x18(%rsp),%eax
  401c27:	69 c0 83 eb 00 00    	imul   $0xeb83,%eax,%eax
  401c2d:	89 44 24 18          	mov    %eax,0x18(%rsp)
  401c31:	8b 44 24 04          	mov    0x4(%rsp),%eax
  401c35:	69 c0 e3 c8 00 00    	imul   $0xc8e3,%eax,%eax
  401c3b:	89 44 24 04          	mov    %eax,0x4(%rsp)
  401c3f:	8b 44 24 10          	mov    0x10(%rsp),%eax
  401c43:	69 c0 bc fa 00 00    	imul   $0xfabc,%eax,%eax
  401c49:	89 44 24 10          	mov    %eax,0x10(%rsp)
  401c4d:	8b 44 24 08          	mov    0x8(%rsp),%eax
  401c51:	69 c0 11 1d 00 00    	imul   $0x1d11,%eax,%eax
  401c57:	89 44 24 08          	mov    %eax,0x8(%rsp)
  401c5b:	8b 44 24 04          	mov    0x4(%rsp),%eax
  401c5f:	69 c0 8a e6 00 00    	imul   $0xe68a,%eax,%eax
  401c65:	89 44 24 04          	mov    %eax,0x4(%rsp)
  401c69:	8b 44 24 0c          	mov    0xc(%rsp),%eax
  401c6d:	69 c0 d8 e9 00 00    	imul   $0xe9d8,%eax,%eax
  401c73:	89 44 24 0c          	mov    %eax,0xc(%rsp)
  401c77:	8b 44 24 20          	mov    0x20(%rsp),%eax
  401c7b:	69 c0 5d f7 00 00    	imul   $0xf75d,%eax,%eax
  401c81:	89 44 24 20          	mov    %eax,0x20(%rsp)
  401c85:	8b 04 24             	mov    (%rsp),%eax
  401c88:	69 c0 f5 2c 00 00    	imul   $0x2cf5,%eax,%eax
  401c8e:	89 04 24             	mov    %eax,(%rsp)
  401c91:	8b 44 24 14          	mov    0x14(%rsp),%eax
  401c95:	69 c0 85 62 00 00    	imul   $0x6285,%eax,%eax
  401c9b:	89 44 24 14          	mov    %eax,0x14(%rsp)
  401c9f:	8b 44 24 24          	mov    0x24(%rsp),%eax
  401ca3:	69 c0 0d f4 00 00    	imul   $0xf40d,%eax,%eax
  401ca9:	89 44 24 24          	mov    %eax,0x24(%rsp)
  401cad:	8b 44 24 18          	mov    0x18(%rsp),%eax
  401cb1:	69 c0 a9 37 00 00    	imul   $0x37a9,%eax,%eax
  401cb7:	89 44 24 18          	mov    %eax,0x18(%rsp)
  401cbb:	8b 44 24 10          	mov    0x10(%rsp),%eax
  401cbf:	69 c0 18 2e 00 00    	imul   $0x2e18,%eax,%eax
  401cc5:	89 44 24 10          	mov    %eax,0x10(%rsp)
  401cc9:	8b 44 24 20          	mov    0x20(%rsp),%eax
  401ccd:	69 c0 bc 2a 00 00    	imul   $0x2abc,%eax,%eax
  401cd3:	89 44 24 20          	mov    %eax,0x20(%rsp)
  401cd7:	8b 44 24 24          	mov    0x24(%rsp),%eax
  401cdb:	69 c0 d9 8a 00 00    	imul   $0x8ad9,%eax,%eax
  401ce1:	89 44 24 24          	mov    %eax,0x24(%rsp)
  401ce5:	8b 44 24 1c          	mov    0x1c(%rsp),%eax
  401ce9:	69 c0 dc a7 00 00    	imul   $0xa7dc,%eax,%eax
  401cef:	89 44 24 1c          	mov    %eax,0x1c(%rsp)
  401cf3:	8b 44 24 08          	mov    0x8(%rsp),%eax
  401cf7:	69 c0 98 fd 00 00    	imul   $0xfd98,%eax,%eax
  401cfd:	89 44 24 08          	mov    %eax,0x8(%rsp)
  401d01:	8b 44 24 24          	mov    0x24(%rsp),%eax
  401d05:	69 c0 b2 0d 00 00    	imul   $0xdb2,%eax,%eax
  401d0b:	89 44 24 24          	mov    %eax,0x24(%rsp)
  401d0f:	8b 04 24             	mov    (%rsp),%eax
  401d12:	69 c0 ab 3a 00 00    	imul   $0x3aab,%eax,%eax
  401d18:	89 04 24             	mov    %eax,(%rsp)
  401d1b:	8b 44 24 18          	mov    0x18(%rsp),%eax
  401d1f:	69 c0 97 36 00 00    	imul   $0x3697,%eax,%eax
  401d25:	89 44 24 18          	mov    %eax,0x18(%rsp)
  401d29:	8b 44 24 24          	mov    0x24(%rsp),%eax
  401d2d:	69 c0 b8 26 00 00    	imul   $0x26b8,%eax,%eax
  401d33:	89 44 24 24          	mov    %eax,0x24(%rsp)
  401d37:	8b 44 24 24          	mov    0x24(%rsp),%eax
  401d3b:	69 c0 99 a4 00 00    	imul   $0xa499,%eax,%eax
  401d41:	89 44 24 24          	mov    %eax,0x24(%rsp)
  401d45:	8b 44 24 20          	mov    0x20(%rsp),%eax
  401d49:	69 c0 e4 f4 00 00    	imul   $0xf4e4,%eax,%eax
  401d4f:	89 44 24 20          	mov    %eax,0x20(%rsp)
  401d53:	8b 44 24 20          	mov    0x20(%rsp),%eax
  401d57:	69 c0 8b 9a 00 00    	imul   $0x9a8b,%eax,%eax
  401d5d:	89 44 24 20          	mov    %eax,0x20(%rsp)
  401d61:	8b 44 24 10          	mov    0x10(%rsp),%eax
  401d65:	69 c0 62 27 00 00    	imul   $0x2762,%eax,%eax
  401d6b:	89 44 24 10          	mov    %eax,0x10(%rsp)
  401d6f:	8b 04 24             	mov    (%rsp),%eax
  401d72:	69 c0 59 0c 00 00    	imul   $0xc59,%eax,%eax
  401d78:	89 04 24             	mov    %eax,(%rsp)
  401d7b:	8b 44 24 1c          	mov    0x1c(%rsp),%eax
  401d7f:	69 c0 70 8f 00 00    	imul   $0x8f70,%eax,%eax
  401d85:	89 44 24 1c          	mov    %eax,0x1c(%rsp)
  401d89:	8b 44 24 08          	mov    0x8(%rsp),%eax
  401d8d:	69 c0 84 6b 00 00    	imul   $0x6b84,%eax,%eax
  401d93:	89 44 24 08          	mov    %eax,0x8(%rsp)
  401d97:	8b 44 24 18          	mov    0x18(%rsp),%eax
  401d9b:	69 c0 d3 ce 00 00    	imul   $0xced3,%eax,%eax
  401da1:	89 44 24 18          	mov    %eax,0x18(%rsp)
  401da5:	8b 44 24 18          	mov    0x18(%rsp),%eax
  401da9:	69 c0 2a 3a 00 00    	imul   $0x3a2a,%eax,%eax
  401daf:	89 44 24 18          	mov    %eax,0x18(%rsp)
  401db3:	8b 44 24 1c          	mov    0x1c(%rsp),%eax
  401db7:	69 c0 b8 ec 00 00    	imul   $0xecb8,%eax,%eax
  401dbd:	89 44 24 1c          	mov    %eax,0x1c(%rsp)
  401dc1:	8b 44 24 10          	mov    0x10(%rsp),%eax
  401dc5:	69 c0 ec dc 00 00    	imul   $0xdcec,%eax,%eax
  401dcb:	89 44 24 10          	mov    %eax,0x10(%rsp)
  401dcf:	8b 04 24             	mov    (%rsp),%eax
  401dd2:	69 c0 67 75 00 00    	imul   $0x7567,%eax,%eax
  401dd8:	89 04 24             	mov    %eax,(%rsp)
  401ddb:	8b 44 24 18          	mov    0x18(%rsp),%eax
  401ddf:	69 c0 cb b0 00 00    	imul   $0xb0cb,%eax,%eax
  401de5:	89 44 24 18          	mov    %eax,0x18(%rsp)
  401de9:	8b 44 24 20          	mov    0x20(%rsp),%eax
  401ded:	69 c0 0c f3 00 00    	imul   $0xf30c,%eax,%eax
  401df3:	89 44 24 20          	mov    %eax,0x20(%rsp)
  401df7:	8b 44 24 0c          	mov    0xc(%rsp),%eax
  401dfb:	69 c0 ce 07 00 00    	imul   $0x7ce,%eax,%eax
  401e01:	89 44 24 0c          	mov    %eax,0xc(%rsp)
  401e05:	8b 44 24 04          	mov    0x4(%rsp),%eax
  401e09:	69 c0 84 04 00 00    	imul   $0x484,%eax,%eax
  401e0f:	89 44 24 04          	mov    %eax,0x4(%rsp)
  401e13:	8b 44 24 08          	mov    0x8(%rsp),%eax
  401e17:	69 c0 56 2a 00 00    	imul   $0x2a56,%eax,%eax
  401e1d:	89 44 24 08          	mov    %eax,0x8(%rsp)
  401e21:	8b 44 24 04          	mov    0x4(%rsp),%eax
  401e25:	69 c0 5e 48 00 00    	imul   $0x485e,%eax,%eax
  401e2b:	89 44 24 04          	mov    %eax,0x4(%rsp)
  401e2f:	8b 44 24 08          	mov    0x8(%rsp),%eax
  401e33:	69 c0 42 1b 00 00    	imul   $0x1b42,%eax,%eax
  401e39:	89 44 24 08          	mov    %eax,0x8(%rsp)
  401e3d:	8b 44 24 18          	mov    0x18(%rsp),%eax
  401e41:	69 c0 f1 c1 00 00    	imul   $0xc1f1,%eax,%eax
  401e47:	89 44 24 18          	mov    %eax,0x18(%rsp)
  401e4b:	8b 44 24 0c          	mov    0xc(%rsp),%eax
  401e4f:	69 c0 30 8b 00 00    	imul   $0x8b30,%eax,%eax
  401e55:	89 44 24 0c          	mov    %eax,0xc(%rsp)
  401e59:	8b 44 24 04          	mov    0x4(%rsp),%eax
  401e5d:	69 c0 9f 6b 00 00    	imul   $0x6b9f,%eax,%eax
  401e63:	89 44 24 04          	mov    %eax,0x4(%rsp)
  401e67:	8b 44 24 10          	mov    0x10(%rsp),%eax
  401e6b:	69 c0 ea 0e 00 00    	imul   $0xeea,%eax,%eax
  401e71:	89 44 24 10          	mov    %eax,0x10(%rsp)
  401e75:	8b 44 24 18          	mov    0x18(%rsp),%eax
  401e79:	69 c0 f5 8c 00 00    	imul   $0x8cf5,%eax,%eax
  401e7f:	89 44 24 18          	mov    %eax,0x18(%rsp)
  401e83:	8b 44 24 0c          	mov    0xc(%rsp),%eax
  401e87:	69 c0 1f 94 00 00    	imul   $0x941f,%eax,%eax
  401e8d:	89 44 24 0c          	mov    %eax,0xc(%rsp)
  401e91:	8b 44 24 24          	mov    0x24(%rsp),%eax
  401e95:	69 c0 1b 2b 00 00    	imul   $0x2b1b,%eax,%eax
  401e9b:	89 44 24 24          	mov    %eax,0x24(%rsp)
  401e9f:	8b 44 24 18          	mov    0x18(%rsp),%eax
  401ea3:	69 c0 fd 63 00 00    	imul   $0x63fd,%eax,%eax
  401ea9:	89 44 24 18          	mov    %eax,0x18(%rsp)
  401ead:	8b 44 24 08          	mov    0x8(%rsp),%eax
  401eb1:	69 c0 a9 5b 00 00    	imul   $0x5ba9,%eax,%eax
  401eb7:	89 44 24 08          	mov    %eax,0x8(%rsp)
  401ebb:	8b 44 24 24          	mov    0x24(%rsp),%eax
  401ebf:	69 c0 94 50 00 00    	imul   $0x5094,%eax,%eax
  401ec5:	89 44 24 24          	mov    %eax,0x24(%rsp)
  401ec9:	8b 44 24 18          	mov    0x18(%rsp),%eax
  401ecd:	69 c0 2b fc 00 00    	imul   $0xfc2b,%eax,%eax
  401ed3:	89 44 24 18          	mov    %eax,0x18(%rsp)
  401ed7:	8b 44 24 04          	mov    0x4(%rsp),%eax
  401edb:	69 c0 7a 68 00 00    	imul   $0x687a,%eax,%eax
  401ee1:	89 44 24 04          	mov    %eax,0x4(%rsp)
  401ee5:	b8 00 00 00 00       	mov    $0x0,%eax
  401eea:	ba 00 00 00 00       	mov    $0x0,%edx
  401eef:	83 f8 09             	cmp    $0x9,%eax
  401ef2:	77 0c                	ja     401f00 <scramble+0x4fc>
  401ef4:	89 c1                	mov    %eax,%ecx
  401ef6:	8b 0c 8c             	mov    (%rsp,%rcx,4),%ecx
  401ef9:	01 ca                	add    %ecx,%edx
  401efb:	83 c0 01             	add    $0x1,%eax
  401efe:	eb ef                	jmp    401eef <scramble+0x4eb>
  401f00:	48 8b 44 24 28       	mov    0x28(%rsp),%rax
  401f05:	64 48 33 04 25 28 00 	xor    %fs:0x28,%rax
  401f0c:	00 00 
  401f0e:	75 07                	jne    401f17 <scramble+0x513>
  401f10:	89 d0                	mov    %edx,%eax
  401f12:	48 83 c4 38          	add    $0x38,%rsp
  401f16:	c3                   	ret    
  401f17:	e8 93 0a 00 00       	call   4029af <__stack_chk_fail>

0000000000401f1c <getbuf>:
  401f1c:	f3 0f 1e fa          	endbr64 
  401f20:	48 83 ec 38          	sub    $0x38,%rsp
  401f24:	48 89 e7             	mov    %rsp,%rdi
  401f27:	e8 9f 05 00 00       	call   4024cb <Gets>
  401f2c:	b8 01 00 00 00       	mov    $0x1,%eax
  401f31:	48 83 c4 38          	add    $0x38,%rsp
  401f35:	c3                   	ret    

0000000000401f36 <touch1>:
  401f36:	f3 0f 1e fa          	endbr64 
  401f3a:	50                   	push   %rax
  401f3b:	58                   	pop    %rax
  401f3c:	48 83 ec 08          	sub    $0x8,%rsp
  401f40:	c7 05 d2 55 00 00 01 	movl   $0x1,0x55d2(%rip)        # 40751c <vlevel>
  401f47:	00 00 00 
  401f4a:	48 8d 3d c5 23 00 00 	lea    0x23c5(%rip),%rdi        # 404316 <_IO_stdin_used+0x316>
  401f51:	e8 5a f3 ff ff       	call   4012b0 <puts@plt>
  401f56:	bf 01 00 00 00       	mov    $0x1,%edi
  401f5b:	e8 dd 07 00 00       	call   40273d <validate>
  401f60:	bf 00 00 00 00       	mov    $0x0,%edi
  401f65:	e8 a6 f4 ff ff       	call   401410 <exit@plt>

0000000000401f6a <touch2>:
  401f6a:	f3 0f 1e fa          	endbr64 
  401f6e:	50                   	push   %rax
  401f6f:	58                   	pop    %rax
  401f70:	48 83 ec 08          	sub    $0x8,%rsp
  401f74:	89 fa                	mov    %edi,%edx
  401f76:	c7 05 9c 55 00 00 02 	movl   $0x2,0x559c(%rip)        # 40751c <vlevel>
  401f7d:	00 00 00 
  401f80:	39 3d 9e 55 00 00    	cmp    %edi,0x559e(%rip)        # 407524 <cookie>
  401f86:	74 2a                	je     401fb2 <touch2+0x48>
  401f88:	48 8d 35 d1 23 00 00 	lea    0x23d1(%rip),%rsi        # 404360 <_IO_stdin_used+0x360>
  401f8f:	bf 01 00 00 00       	mov    $0x1,%edi
  401f94:	b8 00 00 00 00       	mov    $0x0,%eax
  401f99:	e8 22 f4 ff ff       	call   4013c0 <__printf_chk@plt>
  401f9e:	bf 02 00 00 00       	mov    $0x2,%edi
  401fa3:	e8 70 08 00 00       	call   402818 <fail>
  401fa8:	bf 00 00 00 00       	mov    $0x0,%edi
  401fad:	e8 5e f4 ff ff       	call   401410 <exit@plt>
  401fb2:	48 8d 35 7f 23 00 00 	lea    0x237f(%rip),%rsi        # 404338 <_IO_stdin_used+0x338>
  401fb9:	bf 01 00 00 00       	mov    $0x1,%edi
  401fbe:	b8 00 00 00 00       	mov    $0x0,%eax
  401fc3:	e8 f8 f3 ff ff       	call   4013c0 <__printf_chk@plt>
  401fc8:	bf 02 00 00 00       	mov    $0x2,%edi
  401fcd:	e8 6b 07 00 00       	call   40273d <validate>
  401fd2:	eb d4                	jmp    401fa8 <touch2+0x3e>

0000000000401fd4 <hexmatch>:
  401fd4:	f3 0f 1e fa          	endbr64 
  401fd8:	41 55                	push   %r13
  401fda:	41 54                	push   %r12
  401fdc:	55                   	push   %rbp
  401fdd:	53                   	push   %rbx
  401fde:	48 81 ec 88 00 00 00 	sub    $0x88,%rsp
  401fe5:	89 fd                	mov    %edi,%ebp
  401fe7:	48 89 f3             	mov    %rsi,%rbx
  401fea:	41 bc 28 00 00 00    	mov    $0x28,%r12d
  401ff0:	64 49 8b 04 24       	mov    %fs:(%r12),%rax
  401ff5:	48 89 44 24 78       	mov    %rax,0x78(%rsp)
  401ffa:	31 c0                	xor    %eax,%eax
  401ffc:	e8 8f f3 ff ff       	call   401390 <random@plt>
  402001:	48 89 c1             	mov    %rax,%rcx
  402004:	48 ba 0b d7 a3 70 3d 	movabs $0xa3d70a3d70a3d70b,%rdx
  40200b:	0a d7 a3 
  40200e:	48 f7 ea             	imul   %rdx
  402011:	48 01 ca             	add    %rcx,%rdx
  402014:	48 c1 fa 06          	sar    $0x6,%rdx
  402018:	48 89 c8             	mov    %rcx,%rax
  40201b:	48 c1 f8 3f          	sar    $0x3f,%rax
  40201f:	48 29 c2             	sub    %rax,%rdx
  402022:	48 8d 04 92          	lea    (%rdx,%rdx,4),%rax
  402026:	48 8d 04 80          	lea    (%rax,%rax,4),%rax
  40202a:	48 c1 e0 02          	shl    $0x2,%rax
  40202e:	48 29 c1             	sub    %rax,%rcx
  402031:	4c 8d 2c 0c          	lea    (%rsp,%rcx,1),%r13
  402035:	41 89 e8             	mov    %ebp,%r8d
  402038:	48 8d 0d f4 22 00 00 	lea    0x22f4(%rip),%rcx        # 404333 <_IO_stdin_used+0x333>
  40203f:	48 c7 c2 ff ff ff ff 	mov    $0xffffffffffffffff,%rdx
  402046:	be 01 00 00 00       	mov    $0x1,%esi
  40204b:	4c 89 ef             	mov    %r13,%rdi
  40204e:	b8 00 00 00 00       	mov    $0x0,%eax
  402053:	e8 f8 f3 ff ff       	call   401450 <__sprintf_chk@plt>
  402058:	ba 09 00 00 00       	mov    $0x9,%edx
  40205d:	4c 89 ee             	mov    %r13,%rsi
  402060:	48 89 df             	mov    %rbx,%rdi
  402063:	e8 28 f2 ff ff       	call   401290 <strncmp@plt>
  402068:	85 c0                	test   %eax,%eax
  40206a:	0f 94 c0             	sete   %al
  40206d:	48 8b 5c 24 78       	mov    0x78(%rsp),%rbx
  402072:	64 49 33 1c 24       	xor    %fs:(%r12),%rbx
  402077:	75 11                	jne    40208a <hexmatch+0xb6>
  402079:	0f b6 c0             	movzbl %al,%eax
  40207c:	48 81 c4 88 00 00 00 	add    $0x88,%rsp
  402083:	5b                   	pop    %rbx
  402084:	5d                   	pop    %rbp
  402085:	41 5c                	pop    %r12
  402087:	41 5d                	pop    %r13
  402089:	c3                   	ret    
  40208a:	e8 20 09 00 00       	call   4029af <__stack_chk_fail>

000000000040208f <touch3>:
  40208f:	f3 0f 1e fa          	endbr64 
  402093:	53                   	push   %rbx
  402094:	48 89 fb             	mov    %rdi,%rbx
  402097:	c7 05 7b 54 00 00 03 	movl   $0x3,0x547b(%rip)        # 40751c <vlevel>
  40209e:	00 00 00 
  4020a1:	48 89 fe             	mov    %rdi,%rsi
  4020a4:	8b 3d 7a 54 00 00    	mov    0x547a(%rip),%edi        # 407524 <cookie>
  4020aa:	e8 25 ff ff ff       	call   401fd4 <hexmatch>
  4020af:	85 c0                	test   %eax,%eax
  4020b1:	74 2d                	je     4020e0 <touch3+0x51>
  4020b3:	48 89 da             	mov    %rbx,%rdx
  4020b6:	48 8d 35 cb 22 00 00 	lea    0x22cb(%rip),%rsi        # 404388 <_IO_stdin_used+0x388>
  4020bd:	bf 01 00 00 00       	mov    $0x1,%edi
  4020c2:	b8 00 00 00 00       	mov    $0x0,%eax
  4020c7:	e8 f4 f2 ff ff       	call   4013c0 <__printf_chk@plt>
  4020cc:	bf 03 00 00 00       	mov    $0x3,%edi
  4020d1:	e8 67 06 00 00       	call   40273d <validate>
  4020d6:	bf 00 00 00 00       	mov    $0x0,%edi
  4020db:	e8 30 f3 ff ff       	call   401410 <exit@plt>
  4020e0:	48 89 da             	mov    %rbx,%rdx
  4020e3:	48 8d 35 c6 22 00 00 	lea    0x22c6(%rip),%rsi        # 4043b0 <_IO_stdin_used+0x3b0>
  4020ea:	bf 01 00 00 00       	mov    $0x1,%edi
  4020ef:	b8 00 00 00 00       	mov    $0x0,%eax
  4020f4:	e8 c7 f2 ff ff       	call   4013c0 <__printf_chk@plt>
  4020f9:	bf 03 00 00 00       	mov    $0x3,%edi
  4020fe:	e8 15 07 00 00       	call   402818 <fail>
  402103:	eb d1                	jmp    4020d6 <touch3+0x47>

0000000000402105 <test>:
  402105:	f3 0f 1e fa          	endbr64 
  402109:	48 83 ec 08          	sub    $0x8,%rsp
  40210d:	b8 00 00 00 00       	mov    $0x0,%eax
  402112:	e8 05 fe ff ff       	call   401f1c <getbuf>
  402117:	89 c2                	mov    %eax,%edx
  402119:	48 89 e0             	mov    %rsp,%rax
  40211c:	48 83 e0 0f          	and    $0xf,%rax
  402120:	74 07                	je     402129 <aligned4>
  402122:	b9 00 00 00 00       	mov    $0x0,%ecx
  402127:	eb 05                	jmp    40212e <done4>

0000000000402129 <aligned4>:
  402129:	b9 01 00 00 00       	mov    $0x1,%ecx

000000000040212e <done4>:
  40212e:	85 c9                	test   %ecx,%ecx
  402130:	75 23                	jne    402155 <done4+0x27>
  402132:	48 83 ec 08          	sub    $0x8,%rsp
  402136:	48 8d 35 9b 22 00 00 	lea    0x229b(%rip),%rsi        # 4043d8 <_IO_stdin_used+0x3d8>
  40213d:	bf 01 00 00 00       	mov    $0x1,%edi
  402142:	b8 00 00 00 00       	mov    $0x0,%eax
  402147:	e8 74 f2 ff ff       	call   4013c0 <__printf_chk@plt>
  40214c:	48 83 c4 08          	add    $0x8,%rsp
  402150:	48 83 c4 08          	add    $0x8,%rsp
  402154:	c3                   	ret    
  402155:	48 8d 35 7c 22 00 00 	lea    0x227c(%rip),%rsi        # 4043d8 <_IO_stdin_used+0x3d8>
  40215c:	bf 01 00 00 00       	mov    $0x1,%edi
  402161:	b8 00 00 00 00       	mov    $0x0,%eax
  402166:	e8 55 f2 ff ff       	call   4013c0 <__printf_chk@plt>
  40216b:	eb e3                	jmp    402150 <done4+0x22>

000000000040216d <test2>:
  40216d:	f3 0f 1e fa          	endbr64 
  402171:	48 83 ec 08          	sub    $0x8,%rsp
  402175:	b8 00 00 00 00       	mov    $0x0,%eax
  40217a:	e8 1d 00 00 00       	call   40219c <getbuf_withcanary>
  40217f:	89 c2                	mov    %eax,%edx
  402181:	48 8d 35 78 22 00 00 	lea    0x2278(%rip),%rsi        # 404400 <_IO_stdin_used+0x400>
  402188:	bf 01 00 00 00       	mov    $0x1,%edi
  40218d:	b8 00 00 00 00       	mov    $0x0,%eax
  402192:	e8 29 f2 ff ff       	call   4013c0 <__printf_chk@plt>
  402197:	48 83 c4 08          	add    $0x8,%rsp
  40219b:	c3                   	ret    

000000000040219c <getbuf_withcanary>:
  40219c:	f3 0f 1e fa          	endbr64 
  4021a0:	55                   	push   %rbp
  4021a1:	48 89 e5             	mov    %rsp,%rbp
  4021a4:	48 81 ec 90 01 00 00 	sub    $0x190,%rsp
  4021ab:	64 48 8b 04 25 28 00 	mov    %fs:0x28,%rax
  4021b2:	00 00 
  4021b4:	48 89 45 f8          	mov    %rax,-0x8(%rbp)
  4021b8:	31 c0                	xor    %eax,%eax
  4021ba:	c7 85 74 ff ff ff 00 	movl   $0x0,-0x8c(%rbp)
  4021c1:	00 00 00 
  4021c4:	8b 85 74 ff ff ff    	mov    -0x8c(%rbp),%eax
  4021ca:	89 85 70 ff ff ff    	mov    %eax,-0x90(%rbp)
  4021d0:	48 8d 85 70 fe ff ff 	lea    -0x190(%rbp),%rax
  4021d7:	48 89 c7             	mov    %rax,%rdi
  4021da:	e8 ec 02 00 00       	call   4024cb <Gets>
  4021df:	8b 85 70 ff ff ff    	mov    -0x90(%rbp),%eax
  4021e5:	48 63 d0             	movslq %eax,%rdx
  4021e8:	48 8d 85 70 fe ff ff 	lea    -0x190(%rbp),%rax
  4021ef:	48 8d 88 08 01 00 00 	lea    0x108(%rax),%rcx
  4021f6:	48 8d 85 70 fe ff ff 	lea    -0x190(%rbp),%rax
  4021fd:	48 89 ce             	mov    %rcx,%rsi
  402200:	48 89 c7             	mov    %rax,%rdi
  402203:	e8 68 f1 ff ff       	call   401370 <memcpy@plt>
  402208:	8b 85 74 ff ff ff    	mov    -0x8c(%rbp),%eax
  40220e:	48 63 d0             	movslq %eax,%rdx
  402211:	48 8d 85 70 fe ff ff 	lea    -0x190(%rbp),%rax
  402218:	48 8d 8d 70 fe ff ff 	lea    -0x190(%rbp),%rcx
  40221f:	48 81 c1 08 01 00 00 	add    $0x108,%rcx
  402226:	48 89 c6             	mov    %rax,%rsi
  402229:	48 89 cf             	mov    %rcx,%rdi
  40222c:	e8 3f f1 ff ff       	call   401370 <memcpy@plt>
  402231:	b8 01 00 00 00       	mov    $0x1,%eax
  402236:	48 8b 55 f8          	mov    -0x8(%rbp),%rdx
  40223a:	64 48 2b 14 25 28 00 	sub    %fs:0x28,%rdx
  402241:	00 00 
  402243:	74 05                	je     40224a <getbuf_withcanary+0xae>
  402245:	e8 65 07 00 00       	call   4029af <__stack_chk_fail>
  40224a:	c9                   	leave  
  40224b:	c3                   	ret    

000000000040224c <start_farm>:
  40224c:	f3 0f 1e fa          	endbr64 
  402250:	b8 01 00 00 00       	mov    $0x1,%eax
  402255:	c3                   	ret    

0000000000402256 <addval_198>:
  402256:	f3 0f 1e fa          	endbr64 
  40225a:	8d 87 48 99 c7 90    	lea    -0x6f3866b8(%rdi),%eax
  402260:	c3                   	ret    

0000000000402261 <addval_121>:
  402261:	f3 0f 1e fa          	endbr64 
  402265:	8d 87 48 89 c7 c1    	lea    -0x3e3876b8(%rdi),%eax
  40226b:	c3                   	ret    

000000000040226c <setval_160>:
  40226c:	f3 0f 1e fa          	endbr64 
  402270:	c7 07 48 89 c7 90    	movl   $0x90c78948,(%rdi)
  402276:	c3                   	ret    

0000000000402277 <addval_326>:
  402277:	f3 0f 1e fa          	endbr64 
  40227b:	8d 87 13 d8 90 90    	lea    -0x6f6f27ed(%rdi),%eax
  402281:	c3                   	ret    

0000000000402282 <addval_102>:
  402282:	f3 0f 1e fa          	endbr64 
  402286:	8d 87 58 90 90 c3    	lea    -0x3c6f6fa8(%rdi),%eax
  40228c:	c3                   	ret    

000000000040228d <setval_277>:
  40228d:	f3 0f 1e fa          	endbr64 
  402291:	c7 07 77 cb 58 91    	movl   $0x9158cb77,(%rdi)
  402297:	c3                   	ret    

0000000000402298 <getval_471>:
  402298:	f3 0f 1e fa          	endbr64 
  40229c:	b8 58 90 c3 ae       	mov    $0xaec39058,%eax
  4022a1:	c3                   	ret    

00000000004022a2 <getval_125>:
  4022a2:	f3 0f 1e fa          	endbr64 
  4022a6:	b8 48 89 c7 90       	mov    $0x90c78948,%eax
  4022ab:	c3                   	ret    

00000000004022ac <mid_farm>:
  4022ac:	f3 0f 1e fa          	endbr64 
  4022b0:	b8 01 00 00 00       	mov    $0x1,%eax
  4022b5:	c3                   	ret    

00000000004022b6 <add_xy>:
  4022b6:	f3 0f 1e fa          	endbr64 
  4022ba:	48 8d 04 37          	lea    (%rdi,%rsi,1),%rax
  4022be:	c3                   	ret    

00000000004022bf <getval_321>:
  4022bf:	f3 0f 1e fa          	endbr64 
  4022c3:	b8 48 89 e0 c2       	mov    $0xc2e08948,%eax
  4022c8:	c3                   	ret    

00000000004022c9 <addval_301>:
  4022c9:	f3 0f 1e fa          	endbr64 
  4022cd:	8d 87 89 c1 28 c0    	lea    -0x3fd73e77(%rdi),%eax
  4022d3:	c3                   	ret    

00000000004022d4 <getval_151>:
  4022d4:	f3 0f 1e fa          	endbr64 
  4022d8:	b8 48 89 e0 92       	mov    $0x92e08948,%eax
  4022dd:	c3                   	ret    

00000000004022de <getval_280>:
  4022de:	f3 0f 1e fa          	endbr64 
  4022e2:	b8 31 4a 89 e0       	mov    $0xe0894a31,%eax
  4022e7:	c3                   	ret    

00000000004022e8 <setval_305>:
  4022e8:	f3 0f 1e fa          	endbr64 
  4022ec:	c7 07 e0 9d 8d d6    	movl   $0xd68d9de0,(%rdi)
  4022f2:	c3                   	ret    

00000000004022f3 <setval_221>:
  4022f3:	f3 0f 1e fa          	endbr64 
  4022f7:	c7 07 89 ca 18 d2    	movl   $0xd218ca89,(%rdi)
  4022fd:	c3                   	ret    

00000000004022fe <setval_348>:
  4022fe:	f3 0f 1e fa          	endbr64 
  402302:	c7 07 89 d6 84 d2    	movl   $0xd284d689,(%rdi)
  402308:	c3                   	ret    

0000000000402309 <setval_426>:
  402309:	f3 0f 1e fa          	endbr64 
  40230d:	c7 07 89 c1 08 c9    	movl   $0xc908c189,(%rdi)
  402313:	c3                   	ret    

0000000000402314 <setval_489>:
  402314:	f3 0f 1e fa          	endbr64 
  402318:	c7 07 09 ca 90 c3    	movl   $0xc390ca09,(%rdi)
  40231e:	c3                   	ret    

000000000040231f <addval_196>:
  40231f:	f3 0f 1e fa          	endbr64 
  402323:	8d 87 88 c1 c3 5a    	lea    0x5ac3c188(%rdi),%eax
  402329:	c3                   	ret    

000000000040232a <addval_469>:
  40232a:	f3 0f 1e fa          	endbr64 
  40232e:	8d 87 99 c1 20 d2    	lea    -0x2ddf3e67(%rdi),%eax
  402334:	c3                   	ret    

0000000000402335 <getval_229>:
  402335:	f3 0f 1e fa          	endbr64 
  402339:	b8 99 ca 90 90       	mov    $0x9090ca99,%eax
  40233e:	c3                   	ret    

000000000040233f <setval_215>:
  40233f:	f3 0f 1e fa          	endbr64 
  402343:	c7 07 89 d6 90 c3    	movl   $0xc390d689,(%rdi)
  402349:	c3                   	ret    

000000000040234a <setval_287>:
  40234a:	f3 0f 1e fa          	endbr64 
  40234e:	c7 07 88 d6 90 c3    	movl   $0xc390d688,(%rdi)
  402354:	c3                   	ret    

0000000000402355 <getval_164>:
  402355:	f3 0f 1e fa          	endbr64 
  402359:	b8 89 ca 78 c9       	mov    $0xc978ca89,%eax
  40235e:	c3                   	ret    

000000000040235f <getval_110>:
  40235f:	f3 0f 1e fa          	endbr64 
  402363:	b8 89 c1 90 c3       	mov    $0xc390c189,%eax
  402368:	c3                   	ret    

0000000000402369 <getval_228>:
  402369:	f3 0f 1e fa          	endbr64 
  40236d:	b8 89 d6 60 db       	mov    $0xdb60d689,%eax
  402372:	c3                   	ret    

0000000000402373 <setval_255>:
  402373:	f3 0f 1e fa          	endbr64 
  402377:	c7 07 89 ca 20 c0    	movl   $0xc020ca89,(%rdi)
  40237d:	c3                   	ret    

000000000040237e <addval_220>:
  40237e:	f3 0f 1e fa          	endbr64 
  402382:	8d 87 89 c1 91 90    	lea    -0x6f6e3e77(%rdi),%eax
  402388:	c3                   	ret    

0000000000402389 <setval_199>:
  402389:	f3 0f 1e fa          	endbr64 
  40238d:	c7 07 48 89 e0 94    	movl   $0x94e08948,(%rdi)
  402393:	c3                   	ret    

0000000000402394 <getval_401>:
  402394:	f3 0f 1e fa          	endbr64 
  402398:	b8 09 d6 38 c0       	mov    $0xc038d609,%eax
  40239d:	c3                   	ret    

000000000040239e <getval_282>:
  40239e:	f3 0f 1e fa          	endbr64 
  4023a2:	b8 99 ca 84 c9       	mov    $0xc984ca99,%eax
  4023a7:	c3                   	ret    

00000000004023a8 <setval_432>:
  4023a8:	f3 0f 1e fa          	endbr64 
  4023ac:	c7 07 48 09 e0 90    	movl   $0x90e00948,(%rdi)
  4023b2:	c3                   	ret    

00000000004023b3 <getval_373>:
  4023b3:	f3 0f 1e fa          	endbr64 
  4023b7:	b8 ee 89 d6 c2       	mov    $0xc2d689ee,%eax
  4023bc:	c3                   	ret    

00000000004023bd <setval_335>:
  4023bd:	f3 0f 1e fa          	endbr64 
  4023c1:	c7 07 73 48 89 e0    	movl   $0xe0894873,(%rdi)
  4023c7:	c3                   	ret    

00000000004023c8 <setval_210>:
  4023c8:	f3 0f 1e fa          	endbr64 
  4023cc:	c7 07 89 ca 28 c0    	movl   $0xc028ca89,(%rdi)
  4023d2:	c3                   	ret    

00000000004023d3 <addval_461>:
  4023d3:	f3 0f 1e fa          	endbr64 
  4023d7:	8d 87 48 89 e0 90    	lea    -0x6f1f76b8(%rdi),%eax
  4023dd:	c3                   	ret    

00000000004023de <addval_127>:
  4023de:	f3 0f 1e fa          	endbr64 
  4023e2:	8d 87 76 89 c1 92    	lea    -0x6d3e768a(%rdi),%eax
  4023e8:	c3                   	ret    

00000000004023e9 <getval_317>:
  4023e9:	f3 0f 1e fa          	endbr64 
  4023ed:	b8 89 c1 a4 c0       	mov    $0xc0a4c189,%eax
  4023f2:	c3                   	ret    

00000000004023f3 <setval_437>:
  4023f3:	f3 0f 1e fa          	endbr64 
  4023f7:	c7 07 89 ca 84 c0    	movl   $0xc084ca89,(%rdi)
  4023fd:	c3                   	ret    

00000000004023fe <addval_411>:
  4023fe:	f3 0f 1e fa          	endbr64 
  402402:	8d 87 48 88 e0 c3    	lea    -0x3c1f77b8(%rdi),%eax
  402408:	c3                   	ret    

0000000000402409 <addval_219>:
  402409:	f3 0f 1e fa          	endbr64 
  40240d:	8d 87 89 d6 a4 d2    	lea    -0x2d5b2977(%rdi),%eax
  402413:	c3                   	ret    

0000000000402414 <end_farm>:
  402414:	f3 0f 1e fa          	endbr64 
  402418:	b8 01 00 00 00       	mov    $0x1,%eax
  40241d:	c3                   	ret    

000000000040241e <save_char>:
  40241e:	8b 05 20 5d 00 00    	mov    0x5d20(%rip),%eax        # 408144 <gets_cnt>
  402424:	3d ff 03 00 00       	cmp    $0x3ff,%eax
  402429:	7f 4a                	jg     402475 <save_char+0x57>
  40242b:	89 f9                	mov    %edi,%ecx
  40242d:	c0 e9 04             	shr    $0x4,%cl
  402430:	8d 14 40             	lea    (%rax,%rax,2),%edx
  402433:	4c 8d 05 36 23 00 00 	lea    0x2336(%rip),%r8        # 404770 <trans_char>
  40243a:	83 e1 0f             	and    $0xf,%ecx
  40243d:	45 0f b6 0c 08       	movzbl (%r8,%rcx,1),%r9d
  402442:	48 8d 0d f7 50 00 00 	lea    0x50f7(%rip),%rcx        # 407540 <gets_buf>
  402449:	48 63 f2             	movslq %edx,%rsi
  40244c:	44 88 0c 31          	mov    %r9b,(%rcx,%rsi,1)
  402450:	8d 72 01             	lea    0x1(%rdx),%esi
  402453:	83 e7 0f             	and    $0xf,%edi
  402456:	41 0f b6 3c 38       	movzbl (%r8,%rdi,1),%edi
  40245b:	48 63 f6             	movslq %esi,%rsi
  40245e:	40 88 3c 31          	mov    %dil,(%rcx,%rsi,1)
  402462:	83 c2 02             	add    $0x2,%edx
  402465:	48 63 d2             	movslq %edx,%rdx
  402468:	c6 04 11 20          	movb   $0x20,(%rcx,%rdx,1)
  40246c:	83 c0 01             	add    $0x1,%eax
  40246f:	89 05 cf 5c 00 00    	mov    %eax,0x5ccf(%rip)        # 408144 <gets_cnt>
  402475:	c3                   	ret    

0000000000402476 <save_term>:
  402476:	8b 05 c8 5c 00 00    	mov    0x5cc8(%rip),%eax        # 408144 <gets_cnt>
  40247c:	8d 04 40             	lea    (%rax,%rax,2),%eax
  40247f:	48 98                	cltq   
  402481:	48 8d 15 b8 50 00 00 	lea    0x50b8(%rip),%rdx        # 407540 <gets_buf>
  402488:	c6 04 02 00          	movb   $0x0,(%rdx,%rax,1)
  40248c:	c3                   	ret    

000000000040248d <check_fail>:
  40248d:	f3 0f 1e fa          	endbr64 
  402491:	50                   	push   %rax
  402492:	58                   	pop    %rax
  402493:	48 83 ec 08          	sub    $0x8,%rsp
  402497:	0f be 15 aa 5c 00 00 	movsbl 0x5caa(%rip),%edx        # 408148 <target_prefix>
  40249e:	4c 8d 05 9b 50 00 00 	lea    0x509b(%rip),%r8        # 407540 <gets_buf>
  4024a5:	8b 0d 6d 50 00 00    	mov    0x506d(%rip),%ecx        # 407518 <check_level>
  4024ab:	48 8d 35 7c 1f 00 00 	lea    0x1f7c(%rip),%rsi        # 40442e <_IO_stdin_used+0x42e>
  4024b2:	bf 01 00 00 00       	mov    $0x1,%edi
  4024b7:	b8 00 00 00 00       	mov    $0x0,%eax
  4024bc:	e8 ff ee ff ff       	call   4013c0 <__printf_chk@plt>
  4024c1:	bf 01 00 00 00       	mov    $0x1,%edi
  4024c6:	e8 45 ef ff ff       	call   401410 <exit@plt>

00000000004024cb <Gets>:
  4024cb:	f3 0f 1e fa          	endbr64 
  4024cf:	41 54                	push   %r12
  4024d1:	55                   	push   %rbp
  4024d2:	53                   	push   %rbx
  4024d3:	49 89 fc             	mov    %rdi,%r12
  4024d6:	c7 05 64 5c 00 00 00 	movl   $0x0,0x5c64(%rip)        # 408144 <gets_cnt>
  4024dd:	00 00 00 
  4024e0:	48 89 fb             	mov    %rdi,%rbx
  4024e3:	48 8b 3d 26 50 00 00 	mov    0x5026(%rip),%rdi        # 407510 <infile>
  4024ea:	e8 51 ef ff ff       	call   401440 <getc@plt>
  4024ef:	83 f8 ff             	cmp    $0xffffffff,%eax
  4024f2:	74 18                	je     40250c <Gets+0x41>
  4024f4:	83 f8 0a             	cmp    $0xa,%eax
  4024f7:	74 13                	je     40250c <Gets+0x41>
  4024f9:	48 8d 6b 01          	lea    0x1(%rbx),%rbp
  4024fd:	88 03                	mov    %al,(%rbx)
  4024ff:	0f b6 f8             	movzbl %al,%edi
  402502:	e8 17 ff ff ff       	call   40241e <save_char>
  402507:	48 89 eb             	mov    %rbp,%rbx
  40250a:	eb d7                	jmp    4024e3 <Gets+0x18>
  40250c:	c6 03 00             	movb   $0x0,(%rbx)
  40250f:	b8 00 00 00 00       	mov    $0x0,%eax
  402514:	e8 5d ff ff ff       	call   402476 <save_term>
  402519:	4c 89 e0             	mov    %r12,%rax
  40251c:	5b                   	pop    %rbx
  40251d:	5d                   	pop    %rbp
  40251e:	41 5c                	pop    %r12
  402520:	c3                   	ret    

0000000000402521 <notify_server>:
  402521:	f3 0f 1e fa          	endbr64 
  402525:	55                   	push   %rbp
  402526:	53                   	push   %rbx
  402527:	4c 8d 9c 24 00 c0 ff 	lea    -0x4000(%rsp),%r11
  40252e:	ff 
  40252f:	48 81 ec 00 10 00 00 	sub    $0x1000,%rsp
  402536:	48 83 0c 24 00       	orq    $0x0,(%rsp)
  40253b:	4c 39 dc             	cmp    %r11,%rsp
  40253e:	75 ef                	jne    40252f <notify_server+0xe>
  402540:	48 83 ec 18          	sub    $0x18,%rsp
  402544:	64 48 8b 04 25 28 00 	mov    %fs:0x28,%rax
  40254b:	00 00 
  40254d:	48 89 84 24 08 40 00 	mov    %rax,0x4008(%rsp)
  402554:	00 
  402555:	31 c0                	xor    %eax,%eax
  402557:	83 3d ca 4f 00 00 00 	cmpl   $0x0,0x4fca(%rip)        # 407528 <is_checker>
  40255e:	0f 85 b7 01 00 00    	jne    40271b <notify_server+0x1fa>
  402564:	89 fb                	mov    %edi,%ebx
  402566:	81 3d d4 5b 00 00 9c 	cmpl   $0x1f9c,0x5bd4(%rip)        # 408144 <gets_cnt>
  40256d:	1f 00 00 
  402570:	7f 18                	jg     40258a <notify_server+0x69>
  402572:	0f be 05 cf 5b 00 00 	movsbl 0x5bcf(%rip),%eax        # 408148 <target_prefix>
  402579:	83 3d 20 4f 00 00 00 	cmpl   $0x0,0x4f20(%rip)        # 4074a0 <notify>
  402580:	74 23                	je     4025a5 <notify_server+0x84>
  402582:	8b 15 98 4f 00 00    	mov    0x4f98(%rip),%edx        # 407520 <authkey>
  402588:	eb 20                	jmp    4025aa <notify_server+0x89>
  40258a:	48 8d 35 c7 1f 00 00 	lea    0x1fc7(%rip),%rsi        # 404558 <_IO_stdin_used+0x558>
  402591:	bf 01 00 00 00       	mov    $0x1,%edi
  402596:	e8 25 ee ff ff       	call   4013c0 <__printf_chk@plt>
  40259b:	bf 01 00 00 00       	mov    $0x1,%edi
  4025a0:	e8 6b ee ff ff       	call   401410 <exit@plt>
  4025a5:	ba ff ff ff ff       	mov    $0xffffffff,%edx
  4025aa:	85 db                	test   %ebx,%ebx
  4025ac:	0f 84 9b 00 00 00    	je     40264d <notify_server+0x12c>
  4025b2:	48 8d 2d 90 1e 00 00 	lea    0x1e90(%rip),%rbp        # 404449 <_IO_stdin_used+0x449>
  4025b9:	48 89 e7             	mov    %rsp,%rdi
  4025bc:	48 8d 0d 7d 4f 00 00 	lea    0x4f7d(%rip),%rcx        # 407540 <gets_buf>
  4025c3:	51                   	push   %rcx
  4025c4:	56                   	push   %rsi
  4025c5:	50                   	push   %rax
  4025c6:	52                   	push   %rdx
  4025c7:	49 89 e9             	mov    %rbp,%r9
  4025ca:	44 8b 05 7f 4b 00 00 	mov    0x4b7f(%rip),%r8d        # 407150 <target_id>
  4025d1:	48 8d 0d 76 1e 00 00 	lea    0x1e76(%rip),%rcx        # 40444e <_IO_stdin_used+0x44e>
  4025d8:	ba 00 20 00 00       	mov    $0x2000,%edx
  4025dd:	be 01 00 00 00       	mov    $0x1,%esi
  4025e2:	b8 00 00 00 00       	mov    $0x0,%eax
  4025e7:	e8 64 ee ff ff       	call   401450 <__sprintf_chk@plt>
  4025ec:	48 83 c4 20          	add    $0x20,%rsp
  4025f0:	83 3d a9 4e 00 00 00 	cmpl   $0x0,0x4ea9(%rip)        # 4074a0 <notify>
  4025f7:	0f 84 95 00 00 00    	je     402692 <notify_server+0x171>
  4025fd:	48 89 e1             	mov    %rsp,%rcx
  402600:	4c 8d 8c 24 00 20 00 	lea    0x2000(%rsp),%r9
  402607:	00 
  402608:	41 b8 00 00 00 00    	mov    $0x0,%r8d
  40260e:	48 8b 15 53 4b 00 00 	mov    0x4b53(%rip),%rdx        # 407168 <lab>
  402615:	48 8b 35 54 4b 00 00 	mov    0x4b54(%rip),%rsi        # 407170 <course>
  40261c:	48 8b 3d 3d 4b 00 00 	mov    0x4b3d(%rip),%rdi        # 407160 <user_id>
  402623:	e8 75 12 00 00       	call   40389d <driver_post>
  402628:	85 c0                	test   %eax,%eax
  40262a:	78 2d                	js     402659 <notify_server+0x138>
  40262c:	85 db                	test   %ebx,%ebx
  40262e:	74 51                	je     402681 <notify_server+0x160>
  402630:	48 8d 3d 51 1f 00 00 	lea    0x1f51(%rip),%rdi        # 404588 <_IO_stdin_used+0x588>
  402637:	e8 74 ec ff ff       	call   4012b0 <puts@plt>
  40263c:	48 8d 3d 33 1e 00 00 	lea    0x1e33(%rip),%rdi        # 404476 <_IO_stdin_used+0x476>
  402643:	e8 68 ec ff ff       	call   4012b0 <puts@plt>
  402648:	e9 ce 00 00 00       	jmp    40271b <notify_server+0x1fa>
  40264d:	48 8d 2d f0 1d 00 00 	lea    0x1df0(%rip),%rbp        # 404444 <_IO_stdin_used+0x444>
  402654:	e9 60 ff ff ff       	jmp    4025b9 <notify_server+0x98>
  402659:	48 8d 94 24 00 20 00 	lea    0x2000(%rsp),%rdx
  402660:	00 
  402661:	48 8d 35 02 1e 00 00 	lea    0x1e02(%rip),%rsi        # 40446a <_IO_stdin_used+0x46a>
  402668:	bf 01 00 00 00       	mov    $0x1,%edi
  40266d:	b8 00 00 00 00       	mov    $0x0,%eax
  402672:	e8 49 ed ff ff       	call   4013c0 <__printf_chk@plt>
  402677:	bf 01 00 00 00       	mov    $0x1,%edi
  40267c:	e8 8f ed ff ff       	call   401410 <exit@plt>
  402681:	48 8d 3d f8 1d 00 00 	lea    0x1df8(%rip),%rdi        # 404480 <_IO_stdin_used+0x480>
  402688:	e8 23 ec ff ff       	call   4012b0 <puts@plt>
  40268d:	e9 89 00 00 00       	jmp    40271b <notify_server+0x1fa>
  402692:	48 89 ea             	mov    %rbp,%rdx
  402695:	48 8d 35 24 1f 00 00 	lea    0x1f24(%rip),%rsi        # 4045c0 <_IO_stdin_used+0x5c0>
  40269c:	bf 01 00 00 00       	mov    $0x1,%edi
  4026a1:	b8 00 00 00 00       	mov    $0x0,%eax
  4026a6:	e8 15 ed ff ff       	call   4013c0 <__printf_chk@plt>
  4026ab:	48 8b 15 ae 4a 00 00 	mov    0x4aae(%rip),%rdx        # 407160 <user_id>
  4026b2:	48 8d 35 ce 1d 00 00 	lea    0x1dce(%rip),%rsi        # 404487 <_IO_stdin_used+0x487>
  4026b9:	bf 01 00 00 00       	mov    $0x1,%edi
  4026be:	b8 00 00 00 00       	mov    $0x0,%eax
  4026c3:	e8 f8 ec ff ff       	call   4013c0 <__printf_chk@plt>
  4026c8:	48 8b 15 a1 4a 00 00 	mov    0x4aa1(%rip),%rdx        # 407170 <course>
  4026cf:	48 8d 35 be 1d 00 00 	lea    0x1dbe(%rip),%rsi        # 404494 <_IO_stdin_used+0x494>
  4026d6:	bf 01 00 00 00       	mov    $0x1,%edi
  4026db:	b8 00 00 00 00       	mov    $0x0,%eax
  4026e0:	e8 db ec ff ff       	call   4013c0 <__printf_chk@plt>
  4026e5:	48 8b 15 7c 4a 00 00 	mov    0x4a7c(%rip),%rdx        # 407168 <lab>
  4026ec:	48 8d 35 ad 1d 00 00 	lea    0x1dad(%rip),%rsi        # 4044a0 <_IO_stdin_used+0x4a0>
  4026f3:	bf 01 00 00 00       	mov    $0x1,%edi
  4026f8:	b8 00 00 00 00       	mov    $0x0,%eax
  4026fd:	e8 be ec ff ff       	call   4013c0 <__printf_chk@plt>
  402702:	48 89 e2             	mov    %rsp,%rdx
  402705:	48 8d 35 9d 1d 00 00 	lea    0x1d9d(%rip),%rsi        # 4044a9 <_IO_stdin_used+0x4a9>
  40270c:	bf 01 00 00 00       	mov    $0x1,%edi
  402711:	b8 00 00 00 00       	mov    $0x0,%eax
  402716:	e8 a5 ec ff ff       	call   4013c0 <__printf_chk@plt>
  40271b:	48 8b 84 24 08 40 00 	mov    0x4008(%rsp),%rax
  402722:	00 
  402723:	64 48 33 04 25 28 00 	xor    %fs:0x28,%rax
  40272a:	00 00 
  40272c:	75 0a                	jne    402738 <notify_server+0x217>
  40272e:	48 81 c4 18 40 00 00 	add    $0x4018,%rsp
  402735:	5b                   	pop    %rbx
  402736:	5d                   	pop    %rbp
  402737:	c3                   	ret    
  402738:	e8 72 02 00 00       	call   4029af <__stack_chk_fail>

000000000040273d <validate>:
  40273d:	f3 0f 1e fa          	endbr64 
  402741:	53                   	push   %rbx
  402742:	89 fb                	mov    %edi,%ebx
  402744:	83 3d dd 4d 00 00 00 	cmpl   $0x0,0x4ddd(%rip)        # 407528 <is_checker>
  40274b:	74 79                	je     4027c6 <validate+0x89>
  40274d:	39 3d c9 4d 00 00    	cmp    %edi,0x4dc9(%rip)        # 40751c <vlevel>
  402753:	75 39                	jne    40278e <validate+0x51>
  402755:	8b 15 bd 4d 00 00    	mov    0x4dbd(%rip),%edx        # 407518 <check_level>
  40275b:	39 fa                	cmp    %edi,%edx
  40275d:	75 45                	jne    4027a4 <validate+0x67>
  40275f:	0f be 0d e2 59 00 00 	movsbl 0x59e2(%rip),%ecx        # 408148 <target_prefix>
  402766:	4c 8d 0d d3 4d 00 00 	lea    0x4dd3(%rip),%r9        # 407540 <gets_buf>
  40276d:	41 89 f8             	mov    %edi,%r8d
  402770:	8b 15 aa 4d 00 00    	mov    0x4daa(%rip),%edx        # 407520 <authkey>
  402776:	48 8d 35 93 1e 00 00 	lea    0x1e93(%rip),%rsi        # 404610 <_IO_stdin_used+0x610>
  40277d:	bf 01 00 00 00       	mov    $0x1,%edi
  402782:	b8 00 00 00 00       	mov    $0x0,%eax
  402787:	e8 34 ec ff ff       	call   4013c0 <__printf_chk@plt>
  40278c:	5b                   	pop    %rbx
  40278d:	c3                   	ret    
  40278e:	48 8d 3d 20 1d 00 00 	lea    0x1d20(%rip),%rdi        # 4044b5 <_IO_stdin_used+0x4b5>
  402795:	e8 16 eb ff ff       	call   4012b0 <puts@plt>
  40279a:	b8 00 00 00 00       	mov    $0x0,%eax
  40279f:	e8 e9 fc ff ff       	call   40248d <check_fail>
  4027a4:	89 f9                	mov    %edi,%ecx
  4027a6:	48 8d 35 3b 1e 00 00 	lea    0x1e3b(%rip),%rsi        # 4045e8 <_IO_stdin_used+0x5e8>
  4027ad:	bf 01 00 00 00       	mov    $0x1,%edi
  4027b2:	b8 00 00 00 00       	mov    $0x0,%eax
  4027b7:	e8 04 ec ff ff       	call   4013c0 <__printf_chk@plt>
  4027bc:	b8 00 00 00 00       	mov    $0x0,%eax
  4027c1:	e8 c7 fc ff ff       	call   40248d <check_fail>
  4027c6:	39 3d 50 4d 00 00    	cmp    %edi,0x4d50(%rip)        # 40751c <vlevel>
  4027cc:	74 1a                	je     4027e8 <validate+0xab>
  4027ce:	48 8d 3d e0 1c 00 00 	lea    0x1ce0(%rip),%rdi        # 4044b5 <_IO_stdin_used+0x4b5>
  4027d5:	e8 d6 ea ff ff       	call   4012b0 <puts@plt>
  4027da:	89 de                	mov    %ebx,%esi
  4027dc:	bf 00 00 00 00       	mov    $0x0,%edi
  4027e1:	e8 3b fd ff ff       	call   402521 <notify_server>
  4027e6:	eb a4                	jmp    40278c <validate+0x4f>
  4027e8:	0f be 0d 59 59 00 00 	movsbl 0x5959(%rip),%ecx        # 408148 <target_prefix>
  4027ef:	89 fa                	mov    %edi,%edx
  4027f1:	48 8d 35 40 1e 00 00 	lea    0x1e40(%rip),%rsi        # 404638 <_IO_stdin_used+0x638>
  4027f8:	bf 01 00 00 00       	mov    $0x1,%edi
  4027fd:	b8 00 00 00 00       	mov    $0x0,%eax
  402802:	e8 b9 eb ff ff       	call   4013c0 <__printf_chk@plt>
  402807:	89 de                	mov    %ebx,%esi
  402809:	bf 01 00 00 00       	mov    $0x1,%edi
  40280e:	e8 0e fd ff ff       	call   402521 <notify_server>
  402813:	e9 74 ff ff ff       	jmp    40278c <validate+0x4f>

0000000000402818 <fail>:
  402818:	f3 0f 1e fa          	endbr64 
  40281c:	48 83 ec 08          	sub    $0x8,%rsp
  402820:	83 3d 01 4d 00 00 00 	cmpl   $0x0,0x4d01(%rip)        # 407528 <is_checker>
  402827:	75 11                	jne    40283a <fail+0x22>
  402829:	89 fe                	mov    %edi,%esi
  40282b:	bf 00 00 00 00       	mov    $0x0,%edi
  402830:	e8 ec fc ff ff       	call   402521 <notify_server>
  402835:	48 83 c4 08          	add    $0x8,%rsp
  402839:	c3                   	ret    
  40283a:	b8 00 00 00 00       	mov    $0x0,%eax
  40283f:	e8 49 fc ff ff       	call   40248d <check_fail>

0000000000402844 <bushandler>:
  402844:	f3 0f 1e fa          	endbr64 
  402848:	50                   	push   %rax
  402849:	58                   	pop    %rax
  40284a:	48 83 ec 08          	sub    $0x8,%rsp
  40284e:	83 3d d3 4c 00 00 00 	cmpl   $0x0,0x4cd3(%rip)        # 407528 <is_checker>
  402855:	74 16                	je     40286d <bushandler+0x29>
  402857:	48 8d 3d 75 1c 00 00 	lea    0x1c75(%rip),%rdi        # 4044d3 <_IO_stdin_used+0x4d3>
  40285e:	e8 4d ea ff ff       	call   4012b0 <puts@plt>
  402863:	b8 00 00 00 00       	mov    $0x0,%eax
  402868:	e8 20 fc ff ff       	call   40248d <check_fail>
  40286d:	48 8d 3d fc 1d 00 00 	lea    0x1dfc(%rip),%rdi        # 404670 <_IO_stdin_used+0x670>
  402874:	e8 37 ea ff ff       	call   4012b0 <puts@plt>
  402879:	48 8d 3d 5d 1c 00 00 	lea    0x1c5d(%rip),%rdi        # 4044dd <_IO_stdin_used+0x4dd>
  402880:	e8 2b ea ff ff       	call   4012b0 <puts@plt>
  402885:	be 00 00 00 00       	mov    $0x0,%esi
  40288a:	bf 00 00 00 00       	mov    $0x0,%edi
  40288f:	e8 8d fc ff ff       	call   402521 <notify_server>
  402894:	bf 01 00 00 00       	mov    $0x1,%edi
  402899:	e8 72 eb ff ff       	call   401410 <exit@plt>

000000000040289e <seghandler>:
  40289e:	f3 0f 1e fa          	endbr64 
  4028a2:	50                   	push   %rax
  4028a3:	58                   	pop    %rax
  4028a4:	48 83 ec 08          	sub    $0x8,%rsp
  4028a8:	83 3d 79 4c 00 00 00 	cmpl   $0x0,0x4c79(%rip)        # 407528 <is_checker>
  4028af:	74 16                	je     4028c7 <seghandler+0x29>
  4028b1:	48 8d 3d 3b 1c 00 00 	lea    0x1c3b(%rip),%rdi        # 4044f3 <_IO_stdin_used+0x4f3>
  4028b8:	e8 f3 e9 ff ff       	call   4012b0 <puts@plt>
  4028bd:	b8 00 00 00 00       	mov    $0x0,%eax
  4028c2:	e8 c6 fb ff ff       	call   40248d <check_fail>
  4028c7:	48 8d 3d c2 1d 00 00 	lea    0x1dc2(%rip),%rdi        # 404690 <_IO_stdin_used+0x690>
  4028ce:	e8 dd e9 ff ff       	call   4012b0 <puts@plt>
  4028d3:	48 8d 3d 03 1c 00 00 	lea    0x1c03(%rip),%rdi        # 4044dd <_IO_stdin_used+0x4dd>
  4028da:	e8 d1 e9 ff ff       	call   4012b0 <puts@plt>
  4028df:	be 00 00 00 00       	mov    $0x0,%esi
  4028e4:	bf 00 00 00 00       	mov    $0x0,%edi
  4028e9:	e8 33 fc ff ff       	call   402521 <notify_server>
  4028ee:	bf 01 00 00 00       	mov    $0x1,%edi
  4028f3:	e8 18 eb ff ff       	call   401410 <exit@plt>

00000000004028f8 <illegalhandler>:
  4028f8:	f3 0f 1e fa          	endbr64 
  4028fc:	50                   	push   %rax
  4028fd:	58                   	pop    %rax
  4028fe:	48 83 ec 08          	sub    $0x8,%rsp
  402902:	83 3d 1f 4c 00 00 00 	cmpl   $0x0,0x4c1f(%rip)        # 407528 <is_checker>
  402909:	74 16                	je     402921 <illegalhandler+0x29>
  40290b:	48 8d 3d f4 1b 00 00 	lea    0x1bf4(%rip),%rdi        # 404506 <_IO_stdin_used+0x506>
  402912:	e8 99 e9 ff ff       	call   4012b0 <puts@plt>
  402917:	b8 00 00 00 00       	mov    $0x0,%eax
  40291c:	e8 6c fb ff ff       	call   40248d <check_fail>
  402921:	48 8d 3d 90 1d 00 00 	lea    0x1d90(%rip),%rdi        # 4046b8 <_IO_stdin_used+0x6b8>
  402928:	e8 83 e9 ff ff       	call   4012b0 <puts@plt>
  40292d:	48 8d 3d a9 1b 00 00 	lea    0x1ba9(%rip),%rdi        # 4044dd <_IO_stdin_used+0x4dd>
  402934:	e8 77 e9 ff ff       	call   4012b0 <puts@plt>
  402939:	be 00 00 00 00       	mov    $0x0,%esi
  40293e:	bf 00 00 00 00       	mov    $0x0,%edi
  402943:	e8 d9 fb ff ff       	call   402521 <notify_server>
  402948:	bf 01 00 00 00       	mov    $0x1,%edi
  40294d:	e8 be ea ff ff       	call   401410 <exit@plt>

0000000000402952 <sigalrmhandler>:
  402952:	f3 0f 1e fa          	endbr64 
  402956:	50                   	push   %rax
  402957:	58                   	pop    %rax
  402958:	48 83 ec 08          	sub    $0x8,%rsp
  40295c:	83 3d c5 4b 00 00 00 	cmpl   $0x0,0x4bc5(%rip)        # 407528 <is_checker>
  402963:	74 16                	je     40297b <sigalrmhandler+0x29>
  402965:	48 8d 3d ae 1b 00 00 	lea    0x1bae(%rip),%rdi        # 40451a <_IO_stdin_used+0x51a>
  40296c:	e8 3f e9 ff ff       	call   4012b0 <puts@plt>
  402971:	b8 00 00 00 00       	mov    $0x0,%eax
  402976:	e8 12 fb ff ff       	call   40248d <check_fail>
  40297b:	ba 02 00 00 00       	mov    $0x2,%edx
  402980:	48 8d 35 61 1d 00 00 	lea    0x1d61(%rip),%rsi        # 4046e8 <_IO_stdin_used+0x6e8>
  402987:	bf 01 00 00 00       	mov    $0x1,%edi
  40298c:	b8 00 00 00 00       	mov    $0x0,%eax
  402991:	e8 2a ea ff ff       	call   4013c0 <__printf_chk@plt>
  402996:	be 00 00 00 00       	mov    $0x0,%esi
  40299b:	bf 00 00 00 00       	mov    $0x0,%edi
  4029a0:	e8 7c fb ff ff       	call   402521 <notify_server>
  4029a5:	bf 01 00 00 00       	mov    $0x1,%edi
  4029aa:	e8 61 ea ff ff       	call   401410 <exit@plt>

00000000004029af <__stack_chk_fail>:
  4029af:	f3 0f 1e fa          	endbr64 
  4029b3:	50                   	push   %rax
  4029b4:	58                   	pop    %rax
  4029b5:	48 83 ec 08          	sub    $0x8,%rsp
  4029b9:	83 3d 68 4b 00 00 00 	cmpl   $0x0,0x4b68(%rip)        # 407528 <is_checker>
  4029c0:	74 16                	je     4029d8 <__stack_chk_fail+0x29>
  4029c2:	48 8d 3d 59 1b 00 00 	lea    0x1b59(%rip),%rdi        # 404522 <_IO_stdin_used+0x522>
  4029c9:	e8 e2 e8 ff ff       	call   4012b0 <puts@plt>
  4029ce:	b8 00 00 00 00       	mov    $0x0,%eax
  4029d3:	e8 b5 fa ff ff       	call   40248d <check_fail>
  4029d8:	48 8d 3d 41 1d 00 00 	lea    0x1d41(%rip),%rdi        # 404720 <_IO_stdin_used+0x720>
  4029df:	e8 cc e8 ff ff       	call   4012b0 <puts@plt>
  4029e4:	48 8d 3d f2 1a 00 00 	lea    0x1af2(%rip),%rdi        # 4044dd <_IO_stdin_used+0x4dd>
  4029eb:	e8 c0 e8 ff ff       	call   4012b0 <puts@plt>
  4029f0:	be 00 00 00 00       	mov    $0x0,%esi
  4029f5:	bf 00 00 00 00       	mov    $0x0,%edi
  4029fa:	e8 22 fb ff ff       	call   402521 <notify_server>
  4029ff:	bf 01 00 00 00       	mov    $0x1,%edi
  402a04:	e8 07 ea ff ff       	call   401410 <exit@plt>

0000000000402a09 <launch>:
  402a09:	f3 0f 1e fa          	endbr64 
  402a0d:	55                   	push   %rbp
  402a0e:	48 89 e5             	mov    %rsp,%rbp
  402a11:	53                   	push   %rbx
  402a12:	48 83 ec 18          	sub    $0x18,%rsp
  402a16:	48 89 fa             	mov    %rdi,%rdx
  402a19:	89 f3                	mov    %esi,%ebx
  402a1b:	64 48 8b 04 25 28 00 	mov    %fs:0x28,%rax
  402a22:	00 00 
  402a24:	48 89 45 e8          	mov    %rax,-0x18(%rbp)
  402a28:	31 c0                	xor    %eax,%eax
  402a2a:	48 8d 47 17          	lea    0x17(%rdi),%rax
  402a2e:	48 89 c1             	mov    %rax,%rcx
  402a31:	48 83 e1 f0          	and    $0xfffffffffffffff0,%rcx
  402a35:	48 25 00 f0 ff ff    	and    $0xfffffffffffff000,%rax
  402a3b:	48 89 e6             	mov    %rsp,%rsi
  402a3e:	48 29 c6             	sub    %rax,%rsi
  402a41:	48 89 f0             	mov    %rsi,%rax
  402a44:	48 39 c4             	cmp    %rax,%rsp
  402a47:	74 12                	je     402a5b <launch+0x52>
  402a49:	48 81 ec 00 10 00 00 	sub    $0x1000,%rsp
  402a50:	48 83 8c 24 f8 0f 00 	orq    $0x0,0xff8(%rsp)
  402a57:	00 00 
  402a59:	eb e9                	jmp    402a44 <launch+0x3b>
  402a5b:	48 89 c8             	mov    %rcx,%rax
  402a5e:	25 ff 0f 00 00       	and    $0xfff,%eax
  402a63:	48 29 c4             	sub    %rax,%rsp
  402a66:	48 85 c0             	test   %rax,%rax
  402a69:	74 06                	je     402a71 <launch+0x68>
  402a6b:	48 83 4c 04 f8 00    	orq    $0x0,-0x8(%rsp,%rax,1)
  402a71:	48 8d 7c 24 0f       	lea    0xf(%rsp),%rdi
  402a76:	48 83 e7 f0          	and    $0xfffffffffffffff0,%rdi
  402a7a:	be f4 00 00 00       	mov    $0xf4,%esi
  402a7f:	e8 5c e8 ff ff       	call   4012e0 <memset@plt>
  402a84:	48 8b 05 35 4a 00 00 	mov    0x4a35(%rip),%rax        # 4074c0 <stdin@GLIBC_2.2.5>
  402a8b:	48 39 05 7e 4a 00 00 	cmp    %rax,0x4a7e(%rip)        # 407510 <infile>
  402a92:	74 42                	je     402ad6 <launch+0xcd>
  402a94:	c7 05 7e 4a 00 00 00 	movl   $0x0,0x4a7e(%rip)        # 40751c <vlevel>
  402a9b:	00 00 00 
  402a9e:	85 db                	test   %ebx,%ebx
  402aa0:	75 42                	jne    402ae4 <launch+0xdb>
  402aa2:	b8 00 00 00 00       	mov    $0x0,%eax
  402aa7:	e8 59 f6 ff ff       	call   402105 <test>
  402aac:	83 3d 75 4a 00 00 00 	cmpl   $0x0,0x4a75(%rip)        # 407528 <is_checker>
  402ab3:	75 3b                	jne    402af0 <launch+0xe7>
  402ab5:	48 8d 3d 8d 1a 00 00 	lea    0x1a8d(%rip),%rdi        # 404549 <_IO_stdin_used+0x549>
  402abc:	e8 ef e7 ff ff       	call   4012b0 <puts@plt>
  402ac1:	48 8b 45 e8          	mov    -0x18(%rbp),%rax
  402ac5:	64 48 33 04 25 28 00 	xor    %fs:0x28,%rax
  402acc:	00 00 
  402ace:	75 36                	jne    402b06 <launch+0xfd>
  402ad0:	48 8b 5d f8          	mov    -0x8(%rbp),%rbx
  402ad4:	c9                   	leave  
  402ad5:	c3                   	ret    
  402ad6:	48 8d 3d 54 1a 00 00 	lea    0x1a54(%rip),%rdi        # 404531 <_IO_stdin_used+0x531>
  402add:	e8 ce e7 ff ff       	call   4012b0 <puts@plt>
  402ae2:	eb b0                	jmp    402a94 <launch+0x8b>
  402ae4:	b8 00 00 00 00       	mov    $0x0,%eax
  402ae9:	e8 7f f6 ff ff       	call   40216d <test2>
  402aee:	eb bc                	jmp    402aac <launch+0xa3>
  402af0:	48 8d 3d 47 1a 00 00 	lea    0x1a47(%rip),%rdi        # 40453e <_IO_stdin_used+0x53e>
  402af7:	e8 b4 e7 ff ff       	call   4012b0 <puts@plt>
  402afc:	b8 00 00 00 00       	mov    $0x0,%eax
  402b01:	e8 87 f9 ff ff       	call   40248d <check_fail>
  402b06:	e8 a4 fe ff ff       	call   4029af <__stack_chk_fail>

0000000000402b0b <stable_launch>:
  402b0b:	f3 0f 1e fa          	endbr64 
  402b0f:	55                   	push   %rbp
  402b10:	53                   	push   %rbx
  402b11:	48 83 ec 08          	sub    $0x8,%rsp
  402b15:	89 f5                	mov    %esi,%ebp
  402b17:	48 89 3d ea 49 00 00 	mov    %rdi,0x49ea(%rip)        # 407508 <global_offset>
  402b1e:	41 b9 00 00 00 00    	mov    $0x0,%r9d
  402b24:	41 b8 00 00 00 00    	mov    $0x0,%r8d
  402b2a:	b9 32 01 00 00       	mov    $0x132,%ecx
  402b2f:	ba 07 00 00 00       	mov    $0x7,%edx
  402b34:	be 00 00 10 00       	mov    $0x100000,%esi
  402b39:	bf 00 60 58 55       	mov    $0x55586000,%edi
  402b3e:	e8 8d e7 ff ff       	call   4012d0 <mmap@plt>
  402b43:	48 89 c3             	mov    %rax,%rbx
  402b46:	48 3d 00 60 58 55    	cmp    $0x55586000,%rax
  402b4c:	75 4a                	jne    402b98 <stable_launch+0x8d>
  402b4e:	48 8d 90 f8 ff 0f 00 	lea    0xffff8(%rax),%rdx
  402b55:	48 89 15 f4 55 00 00 	mov    %rdx,0x55f4(%rip)        # 408150 <stack_top>
  402b5c:	48 89 e0             	mov    %rsp,%rax
  402b5f:	48 89 d4             	mov    %rdx,%rsp
  402b62:	48 89 c2             	mov    %rax,%rdx
  402b65:	48 89 15 94 49 00 00 	mov    %rdx,0x4994(%rip)        # 407500 <global_save_stack>
  402b6c:	89 ee                	mov    %ebp,%esi
  402b6e:	48 8b 3d 93 49 00 00 	mov    0x4993(%rip),%rdi        # 407508 <global_offset>
  402b75:	e8 8f fe ff ff       	call   402a09 <launch>
  402b7a:	48 8b 05 7f 49 00 00 	mov    0x497f(%rip),%rax        # 407500 <global_save_stack>
  402b81:	48 89 c4             	mov    %rax,%rsp
  402b84:	be 00 00 10 00       	mov    $0x100000,%esi
  402b89:	48 89 df             	mov    %rbx,%rdi
  402b8c:	e8 1f e8 ff ff       	call   4013b0 <munmap@plt>
  402b91:	48 83 c4 08          	add    $0x8,%rsp
  402b95:	5b                   	pop    %rbx
  402b96:	5d                   	pop    %rbp
  402b97:	c3                   	ret    
  402b98:	be 00 00 10 00       	mov    $0x100000,%esi
  402b9d:	48 89 c7             	mov    %rax,%rdi
  402ba0:	e8 0b e8 ff ff       	call   4013b0 <munmap@plt>
  402ba5:	b9 00 60 58 55       	mov    $0x55586000,%ecx
  402baa:	48 8d 15 97 1b 00 00 	lea    0x1b97(%rip),%rdx        # 404748 <_IO_stdin_used+0x748>
  402bb1:	be 01 00 00 00       	mov    $0x1,%esi
  402bb6:	48 8b 3d 23 49 00 00 	mov    0x4923(%rip),%rdi        # 4074e0 <stderr@GLIBC_2.2.5>
  402bbd:	b8 00 00 00 00       	mov    $0x0,%eax
  402bc2:	e8 69 e8 ff ff       	call   401430 <__fprintf_chk@plt>
  402bc7:	bf 01 00 00 00       	mov    $0x1,%edi
  402bcc:	e8 3f e8 ff ff       	call   401410 <exit@plt>

0000000000402bd1 <rio_readinitb>:
  402bd1:	89 37                	mov    %esi,(%rdi)
  402bd3:	c7 47 04 00 00 00 00 	movl   $0x0,0x4(%rdi)
  402bda:	48 8d 47 10          	lea    0x10(%rdi),%rax
  402bde:	48 89 47 08          	mov    %rax,0x8(%rdi)
  402be2:	c3                   	ret    

0000000000402be3 <sigalrm_handler>:
  402be3:	f3 0f 1e fa          	endbr64 
  402be7:	50                   	push   %rax
  402be8:	58                   	pop    %rax
  402be9:	48 83 ec 08          	sub    $0x8,%rsp
  402bed:	b9 00 00 00 00       	mov    $0x0,%ecx
  402bf2:	48 8d 15 87 1b 00 00 	lea    0x1b87(%rip),%rdx        # 404780 <trans_char+0x10>
  402bf9:	be 01 00 00 00       	mov    $0x1,%esi
  402bfe:	48 8b 3d db 48 00 00 	mov    0x48db(%rip),%rdi        # 4074e0 <stderr@GLIBC_2.2.5>
  402c05:	b8 00 00 00 00       	mov    $0x0,%eax
  402c0a:	e8 21 e8 ff ff       	call   401430 <__fprintf_chk@plt>
  402c0f:	bf 01 00 00 00       	mov    $0x1,%edi
  402c14:	e8 f7 e7 ff ff       	call   401410 <exit@plt>

0000000000402c19 <rio_writen>:
  402c19:	41 55                	push   %r13
  402c1b:	41 54                	push   %r12
  402c1d:	55                   	push   %rbp
  402c1e:	53                   	push   %rbx
  402c1f:	48 83 ec 08          	sub    $0x8,%rsp
  402c23:	41 89 fc             	mov    %edi,%r12d
  402c26:	48 89 f5             	mov    %rsi,%rbp
  402c29:	49 89 d5             	mov    %rdx,%r13
  402c2c:	48 89 d3             	mov    %rdx,%rbx
  402c2f:	eb 06                	jmp    402c37 <rio_writen+0x1e>
  402c31:	48 29 c3             	sub    %rax,%rbx
  402c34:	48 01 c5             	add    %rax,%rbp
  402c37:	48 85 db             	test   %rbx,%rbx
  402c3a:	74 24                	je     402c60 <rio_writen+0x47>
  402c3c:	48 89 da             	mov    %rbx,%rdx
  402c3f:	48 89 ee             	mov    %rbp,%rsi
  402c42:	44 89 e7             	mov    %r12d,%edi
  402c45:	e8 76 e6 ff ff       	call   4012c0 <write@plt>
  402c4a:	48 85 c0             	test   %rax,%rax
  402c4d:	7f e2                	jg     402c31 <rio_writen+0x18>
  402c4f:	e8 0c e6 ff ff       	call   401260 <__errno_location@plt>
  402c54:	83 38 04             	cmpl   $0x4,(%rax)
  402c57:	75 15                	jne    402c6e <rio_writen+0x55>
  402c59:	b8 00 00 00 00       	mov    $0x0,%eax
  402c5e:	eb d1                	jmp    402c31 <rio_writen+0x18>
  402c60:	4c 89 e8             	mov    %r13,%rax
  402c63:	48 83 c4 08          	add    $0x8,%rsp
  402c67:	5b                   	pop    %rbx
  402c68:	5d                   	pop    %rbp
  402c69:	41 5c                	pop    %r12
  402c6b:	41 5d                	pop    %r13
  402c6d:	c3                   	ret    
  402c6e:	48 c7 c0 ff ff ff ff 	mov    $0xffffffffffffffff,%rax
  402c75:	eb ec                	jmp    402c63 <rio_writen+0x4a>

0000000000402c77 <rio_read>:
  402c77:	41 55                	push   %r13
  402c79:	41 54                	push   %r12
  402c7b:	55                   	push   %rbp
  402c7c:	53                   	push   %rbx
  402c7d:	48 83 ec 08          	sub    $0x8,%rsp
  402c81:	48 89 fb             	mov    %rdi,%rbx
  402c84:	49 89 f5             	mov    %rsi,%r13
  402c87:	49 89 d4             	mov    %rdx,%r12
  402c8a:	eb 17                	jmp    402ca3 <rio_read+0x2c>
  402c8c:	e8 cf e5 ff ff       	call   401260 <__errno_location@plt>
  402c91:	83 38 04             	cmpl   $0x4,(%rax)
  402c94:	74 0d                	je     402ca3 <rio_read+0x2c>
  402c96:	48 c7 c0 ff ff ff ff 	mov    $0xffffffffffffffff,%rax
  402c9d:	eb 54                	jmp    402cf3 <rio_read+0x7c>
  402c9f:	48 89 6b 08          	mov    %rbp,0x8(%rbx)
  402ca3:	8b 6b 04             	mov    0x4(%rbx),%ebp
  402ca6:	85 ed                	test   %ebp,%ebp
  402ca8:	7f 23                	jg     402ccd <rio_read+0x56>
  402caa:	48 8d 6b 10          	lea    0x10(%rbx),%rbp
  402cae:	8b 3b                	mov    (%rbx),%edi
  402cb0:	ba 00 20 00 00       	mov    $0x2000,%edx
  402cb5:	48 89 ee             	mov    %rbp,%rsi
  402cb8:	e8 53 e6 ff ff       	call   401310 <read@plt>
  402cbd:	89 43 04             	mov    %eax,0x4(%rbx)
  402cc0:	85 c0                	test   %eax,%eax
  402cc2:	78 c8                	js     402c8c <rio_read+0x15>
  402cc4:	75 d9                	jne    402c9f <rio_read+0x28>
  402cc6:	b8 00 00 00 00       	mov    $0x0,%eax
  402ccb:	eb 26                	jmp    402cf3 <rio_read+0x7c>
  402ccd:	89 e8                	mov    %ebp,%eax
  402ccf:	4c 39 e0             	cmp    %r12,%rax
  402cd2:	72 03                	jb     402cd7 <rio_read+0x60>
  402cd4:	44 89 e5             	mov    %r12d,%ebp
  402cd7:	4c 63 e5             	movslq %ebp,%r12
  402cda:	48 8b 73 08          	mov    0x8(%rbx),%rsi
  402cde:	4c 89 e2             	mov    %r12,%rdx
  402ce1:	4c 89 ef             	mov    %r13,%rdi
  402ce4:	e8 87 e6 ff ff       	call   401370 <memcpy@plt>
  402ce9:	4c 01 63 08          	add    %r12,0x8(%rbx)
  402ced:	29 6b 04             	sub    %ebp,0x4(%rbx)
  402cf0:	4c 89 e0             	mov    %r12,%rax
  402cf3:	48 83 c4 08          	add    $0x8,%rsp
  402cf7:	5b                   	pop    %rbx
  402cf8:	5d                   	pop    %rbp
  402cf9:	41 5c                	pop    %r12
  402cfb:	41 5d                	pop    %r13
  402cfd:	c3                   	ret    

0000000000402cfe <rio_readlineb>:
  402cfe:	41 55                	push   %r13
  402d00:	41 54                	push   %r12
  402d02:	55                   	push   %rbp
  402d03:	53                   	push   %rbx
  402d04:	48 83 ec 18          	sub    $0x18,%rsp
  402d08:	49 89 fd             	mov    %rdi,%r13
  402d0b:	48 89 f5             	mov    %rsi,%rbp
  402d0e:	49 89 d4             	mov    %rdx,%r12
  402d11:	64 48 8b 04 25 28 00 	mov    %fs:0x28,%rax
  402d18:	00 00 
  402d1a:	48 89 44 24 08       	mov    %rax,0x8(%rsp)
  402d1f:	31 c0                	xor    %eax,%eax
  402d21:	bb 01 00 00 00       	mov    $0x1,%ebx
  402d26:	eb 18                	jmp    402d40 <rio_readlineb+0x42>
  402d28:	85 c0                	test   %eax,%eax
  402d2a:	75 65                	jne    402d91 <rio_readlineb+0x93>
  402d2c:	48 83 fb 01          	cmp    $0x1,%rbx
  402d30:	75 3d                	jne    402d6f <rio_readlineb+0x71>
  402d32:	b8 00 00 00 00       	mov    $0x0,%eax
  402d37:	eb 3d                	jmp    402d76 <rio_readlineb+0x78>
  402d39:	48 83 c3 01          	add    $0x1,%rbx
  402d3d:	48 89 d5             	mov    %rdx,%rbp
  402d40:	4c 39 e3             	cmp    %r12,%rbx
  402d43:	73 2a                	jae    402d6f <rio_readlineb+0x71>
  402d45:	48 8d 74 24 07       	lea    0x7(%rsp),%rsi
  402d4a:	ba 01 00 00 00       	mov    $0x1,%edx
  402d4f:	4c 89 ef             	mov    %r13,%rdi
  402d52:	e8 20 ff ff ff       	call   402c77 <rio_read>
  402d57:	83 f8 01             	cmp    $0x1,%eax
  402d5a:	75 cc                	jne    402d28 <rio_readlineb+0x2a>
  402d5c:	48 8d 55 01          	lea    0x1(%rbp),%rdx
  402d60:	0f b6 44 24 07       	movzbl 0x7(%rsp),%eax
  402d65:	88 45 00             	mov    %al,0x0(%rbp)
  402d68:	3c 0a                	cmp    $0xa,%al
  402d6a:	75 cd                	jne    402d39 <rio_readlineb+0x3b>
  402d6c:	48 89 d5             	mov    %rdx,%rbp
  402d6f:	c6 45 00 00          	movb   $0x0,0x0(%rbp)
  402d73:	48 89 d8             	mov    %rbx,%rax
  402d76:	48 8b 4c 24 08       	mov    0x8(%rsp),%rcx
  402d7b:	64 48 33 0c 25 28 00 	xor    %fs:0x28,%rcx
  402d82:	00 00 
  402d84:	75 14                	jne    402d9a <rio_readlineb+0x9c>
  402d86:	48 83 c4 18          	add    $0x18,%rsp
  402d8a:	5b                   	pop    %rbx
  402d8b:	5d                   	pop    %rbp
  402d8c:	41 5c                	pop    %r12
  402d8e:	41 5d                	pop    %r13
  402d90:	c3                   	ret    
  402d91:	48 c7 c0 ff ff ff ff 	mov    $0xffffffffffffffff,%rax
  402d98:	eb dc                	jmp    402d76 <rio_readlineb+0x78>
  402d9a:	e8 10 fc ff ff       	call   4029af <__stack_chk_fail>

0000000000402d9f <urlencode>:
  402d9f:	41 54                	push   %r12
  402da1:	55                   	push   %rbp
  402da2:	53                   	push   %rbx
  402da3:	48 83 ec 10          	sub    $0x10,%rsp
  402da7:	48 89 fb             	mov    %rdi,%rbx
  402daa:	48 89 f5             	mov    %rsi,%rbp
  402dad:	64 48 8b 04 25 28 00 	mov    %fs:0x28,%rax
  402db4:	00 00 
  402db6:	48 89 44 24 08       	mov    %rax,0x8(%rsp)
  402dbb:	31 c0                	xor    %eax,%eax
  402dbd:	48 c7 c1 ff ff ff ff 	mov    $0xffffffffffffffff,%rcx
  402dc4:	f2 ae                	repnz scas %es:(%rdi),%al
  402dc6:	48 f7 d1             	not    %rcx
  402dc9:	8d 41 ff             	lea    -0x1(%rcx),%eax
  402dcc:	eb 0f                	jmp    402ddd <urlencode+0x3e>
  402dce:	44 88 45 00          	mov    %r8b,0x0(%rbp)
  402dd2:	48 8d 6d 01          	lea    0x1(%rbp),%rbp
  402dd6:	48 83 c3 01          	add    $0x1,%rbx
  402dda:	44 89 e0             	mov    %r12d,%eax
  402ddd:	44 8d 60 ff          	lea    -0x1(%rax),%r12d
  402de1:	85 c0                	test   %eax,%eax
  402de3:	0f 84 a8 00 00 00    	je     402e91 <urlencode+0xf2>
  402de9:	44 0f b6 03          	movzbl (%rbx),%r8d
  402ded:	41 80 f8 2a          	cmp    $0x2a,%r8b
  402df1:	0f 94 c2             	sete   %dl
  402df4:	41 80 f8 2d          	cmp    $0x2d,%r8b
  402df8:	0f 94 c0             	sete   %al
  402dfb:	08 c2                	or     %al,%dl
  402dfd:	75 cf                	jne    402dce <urlencode+0x2f>
  402dff:	41 80 f8 2e          	cmp    $0x2e,%r8b
  402e03:	74 c9                	je     402dce <urlencode+0x2f>
  402e05:	41 80 f8 5f          	cmp    $0x5f,%r8b
  402e09:	74 c3                	je     402dce <urlencode+0x2f>
  402e0b:	41 8d 40 d0          	lea    -0x30(%r8),%eax
  402e0f:	3c 09                	cmp    $0x9,%al
  402e11:	76 bb                	jbe    402dce <urlencode+0x2f>
  402e13:	41 8d 40 bf          	lea    -0x41(%r8),%eax
  402e17:	3c 19                	cmp    $0x19,%al
  402e19:	76 b3                	jbe    402dce <urlencode+0x2f>
  402e1b:	41 8d 40 9f          	lea    -0x61(%r8),%eax
  402e1f:	3c 19                	cmp    $0x19,%al
  402e21:	76 ab                	jbe    402dce <urlencode+0x2f>
  402e23:	41 80 f8 20          	cmp    $0x20,%r8b
  402e27:	74 56                	je     402e7f <urlencode+0xe0>
  402e29:	41 8d 40 e0          	lea    -0x20(%r8),%eax
  402e2d:	3c 5f                	cmp    $0x5f,%al
  402e2f:	0f 96 c2             	setbe  %dl
  402e32:	41 80 f8 09          	cmp    $0x9,%r8b
  402e36:	0f 94 c0             	sete   %al
  402e39:	08 c2                	or     %al,%dl
  402e3b:	74 4f                	je     402e8c <urlencode+0xed>
  402e3d:	48 89 e7             	mov    %rsp,%rdi
  402e40:	45 0f b6 c0          	movzbl %r8b,%r8d
  402e44:	48 8d 0d ea 19 00 00 	lea    0x19ea(%rip),%rcx        # 404835 <trans_char+0xc5>
  402e4b:	ba 08 00 00 00       	mov    $0x8,%edx
  402e50:	be 01 00 00 00       	mov    $0x1,%esi
  402e55:	b8 00 00 00 00       	mov    $0x0,%eax
  402e5a:	e8 f1 e5 ff ff       	call   401450 <__sprintf_chk@plt>
  402e5f:	0f b6 04 24          	movzbl (%rsp),%eax
  402e63:	88 45 00             	mov    %al,0x0(%rbp)
  402e66:	0f b6 44 24 01       	movzbl 0x1(%rsp),%eax
  402e6b:	88 45 01             	mov    %al,0x1(%rbp)
  402e6e:	0f b6 44 24 02       	movzbl 0x2(%rsp),%eax
  402e73:	88 45 02             	mov    %al,0x2(%rbp)
  402e76:	48 8d 6d 03          	lea    0x3(%rbp),%rbp
  402e7a:	e9 57 ff ff ff       	jmp    402dd6 <urlencode+0x37>
  402e7f:	c6 45 00 2b          	movb   $0x2b,0x0(%rbp)
  402e83:	48 8d 6d 01          	lea    0x1(%rbp),%rbp
  402e87:	e9 4a ff ff ff       	jmp    402dd6 <urlencode+0x37>
  402e8c:	b8 ff ff ff ff       	mov    $0xffffffff,%eax
  402e91:	48 8b 74 24 08       	mov    0x8(%rsp),%rsi
  402e96:	64 48 33 34 25 28 00 	xor    %fs:0x28,%rsi
  402e9d:	00 00 
  402e9f:	75 09                	jne    402eaa <urlencode+0x10b>
  402ea1:	48 83 c4 10          	add    $0x10,%rsp
  402ea5:	5b                   	pop    %rbx
  402ea6:	5d                   	pop    %rbp
  402ea7:	41 5c                	pop    %r12
  402ea9:	c3                   	ret    
  402eaa:	e8 00 fb ff ff       	call   4029af <__stack_chk_fail>

0000000000402eaf <submitr>:
  402eaf:	f3 0f 1e fa          	endbr64 
  402eb3:	41 57                	push   %r15
  402eb5:	41 56                	push   %r14
  402eb7:	41 55                	push   %r13
  402eb9:	41 54                	push   %r12
  402ebb:	55                   	push   %rbp
  402ebc:	53                   	push   %rbx
  402ebd:	4c 8d 9c 24 00 60 ff 	lea    -0xa000(%rsp),%r11
  402ec4:	ff 
  402ec5:	48 81 ec 00 10 00 00 	sub    $0x1000,%rsp
  402ecc:	48 83 0c 24 00       	orq    $0x0,(%rsp)
  402ed1:	4c 39 dc             	cmp    %r11,%rsp
  402ed4:	75 ef                	jne    402ec5 <submitr+0x16>
  402ed6:	48 83 ec 68          	sub    $0x68,%rsp
  402eda:	49 89 fc             	mov    %rdi,%r12
  402edd:	89 74 24 1c          	mov    %esi,0x1c(%rsp)
  402ee1:	48 89 54 24 08       	mov    %rdx,0x8(%rsp)
  402ee6:	49 89 cd             	mov    %rcx,%r13
  402ee9:	4c 89 44 24 10       	mov    %r8,0x10(%rsp)
  402eee:	4d 89 ce             	mov    %r9,%r14
  402ef1:	48 8b ac 24 a0 a0 00 	mov    0xa0a0(%rsp),%rbp
  402ef8:	00 
  402ef9:	64 48 8b 04 25 28 00 	mov    %fs:0x28,%rax
  402f00:	00 00 
  402f02:	48 89 84 24 58 a0 00 	mov    %rax,0xa058(%rsp)
  402f09:	00 
  402f0a:	31 c0                	xor    %eax,%eax
  402f0c:	c7 44 24 2c 00 00 00 	movl   $0x0,0x2c(%rsp)
  402f13:	00 
  402f14:	ba 00 00 00 00       	mov    $0x0,%edx
  402f19:	be 01 00 00 00       	mov    $0x1,%esi
  402f1e:	bf 02 00 00 00       	mov    $0x2,%edi
  402f23:	e8 38 e5 ff ff       	call   401460 <socket@plt>
  402f28:	85 c0                	test   %eax,%eax
  402f2a:	0f 88 a5 02 00 00    	js     4031d5 <submitr+0x326>
  402f30:	89 c3                	mov    %eax,%ebx
  402f32:	4c 89 e7             	mov    %r12,%rdi
  402f35:	e8 06 e4 ff ff       	call   401340 <gethostbyname@plt>
  402f3a:	48 85 c0             	test   %rax,%rax
  402f3d:	0f 84 de 02 00 00    	je     403221 <submitr+0x372>
  402f43:	4c 8d 7c 24 30       	lea    0x30(%rsp),%r15
  402f48:	48 c7 44 24 30 00 00 	movq   $0x0,0x30(%rsp)
  402f4f:	00 00 
  402f51:	48 c7 44 24 38 00 00 	movq   $0x0,0x38(%rsp)
  402f58:	00 00 
  402f5a:	66 c7 44 24 30 02 00 	movw   $0x2,0x30(%rsp)
  402f61:	48 63 50 14          	movslq 0x14(%rax),%rdx
  402f65:	48 8b 40 18          	mov    0x18(%rax),%rax
  402f69:	48 8b 30             	mov    (%rax),%rsi
  402f6c:	48 8d 7c 24 34       	lea    0x34(%rsp),%rdi
  402f71:	b9 0c 00 00 00       	mov    $0xc,%ecx
  402f76:	e8 d5 e3 ff ff       	call   401350 <__memmove_chk@plt>
  402f7b:	0f b7 74 24 1c       	movzwl 0x1c(%rsp),%esi
  402f80:	66 c1 c6 08          	rol    $0x8,%si
  402f84:	66 89 74 24 32       	mov    %si,0x32(%rsp)
  402f89:	ba 10 00 00 00       	mov    $0x10,%edx
  402f8e:	4c 89 fe             	mov    %r15,%rsi
  402f91:	89 df                	mov    %ebx,%edi
  402f93:	e8 88 e4 ff ff       	call   401420 <connect@plt>
  402f98:	85 c0                	test   %eax,%eax
  402f9a:	0f 88 f7 02 00 00    	js     403297 <submitr+0x3e8>
  402fa0:	48 c7 c6 ff ff ff ff 	mov    $0xffffffffffffffff,%rsi
  402fa7:	b8 00 00 00 00       	mov    $0x0,%eax
  402fac:	48 89 f1             	mov    %rsi,%rcx
  402faf:	4c 89 f7             	mov    %r14,%rdi
  402fb2:	f2 ae                	repnz scas %es:(%rdi),%al
  402fb4:	48 89 ca             	mov    %rcx,%rdx
  402fb7:	48 f7 d2             	not    %rdx
  402fba:	48 89 f1             	mov    %rsi,%rcx
  402fbd:	48 8b 7c 24 08       	mov    0x8(%rsp),%rdi
  402fc2:	f2 ae                	repnz scas %es:(%rdi),%al
  402fc4:	48 f7 d1             	not    %rcx
  402fc7:	49 89 c8             	mov    %rcx,%r8
  402fca:	48 89 f1             	mov    %rsi,%rcx
  402fcd:	4c 89 ef             	mov    %r13,%rdi
  402fd0:	f2 ae                	repnz scas %es:(%rdi),%al
  402fd2:	48 f7 d1             	not    %rcx
  402fd5:	4d 8d 44 08 fe       	lea    -0x2(%r8,%rcx,1),%r8
  402fda:	48 89 f1             	mov    %rsi,%rcx
  402fdd:	48 8b 7c 24 10       	mov    0x10(%rsp),%rdi
  402fe2:	f2 ae                	repnz scas %es:(%rdi),%al
  402fe4:	48 89 c8             	mov    %rcx,%rax
  402fe7:	48 f7 d0             	not    %rax
  402fea:	49 8d 4c 00 ff       	lea    -0x1(%r8,%rax,1),%rcx
  402fef:	48 8d 44 52 fd       	lea    -0x3(%rdx,%rdx,2),%rax
  402ff4:	48 8d 84 01 80 00 00 	lea    0x80(%rcx,%rax,1),%rax
  402ffb:	00 
  402ffc:	48 3d 00 20 00 00    	cmp    $0x2000,%rax
  403002:	0f 87 f7 02 00 00    	ja     4032ff <submitr+0x450>
  403008:	48 8d b4 24 50 40 00 	lea    0x4050(%rsp),%rsi
  40300f:	00 
  403010:	b9 00 04 00 00       	mov    $0x400,%ecx
  403015:	b8 00 00 00 00       	mov    $0x0,%eax
  40301a:	48 89 f7             	mov    %rsi,%rdi
  40301d:	f3 48 ab             	rep stos %rax,%es:(%rdi)
  403020:	4c 89 f7             	mov    %r14,%rdi
  403023:	e8 77 fd ff ff       	call   402d9f <urlencode>
  403028:	85 c0                	test   %eax,%eax
  40302a:	0f 88 42 03 00 00    	js     403372 <submitr+0x4c3>
  403030:	4c 8d bc 24 50 20 00 	lea    0x2050(%rsp),%r15
  403037:	00 
  403038:	48 83 ec 08          	sub    $0x8,%rsp
  40303c:	41 54                	push   %r12
  40303e:	48 8d 84 24 60 40 00 	lea    0x4060(%rsp),%rax
  403045:	00 
  403046:	50                   	push   %rax
  403047:	41 55                	push   %r13
  403049:	4c 8b 4c 24 30       	mov    0x30(%rsp),%r9
  40304e:	4c 8b 44 24 28       	mov    0x28(%rsp),%r8
  403053:	48 8d 0d 4e 17 00 00 	lea    0x174e(%rip),%rcx        # 4047a8 <trans_char+0x38>
  40305a:	ba 00 20 00 00       	mov    $0x2000,%edx
  40305f:	be 01 00 00 00       	mov    $0x1,%esi
  403064:	4c 89 ff             	mov    %r15,%rdi
  403067:	b8 00 00 00 00       	mov    $0x0,%eax
  40306c:	e8 df e3 ff ff       	call   401450 <__sprintf_chk@plt>
  403071:	48 c7 c1 ff ff ff ff 	mov    $0xffffffffffffffff,%rcx
  403078:	b8 00 00 00 00       	mov    $0x0,%eax
  40307d:	4c 89 ff             	mov    %r15,%rdi
  403080:	f2 ae                	repnz scas %es:(%rdi),%al
  403082:	48 f7 d1             	not    %rcx
  403085:	48 8d 51 ff          	lea    -0x1(%rcx),%rdx
  403089:	48 83 c4 20          	add    $0x20,%rsp
  40308d:	4c 89 fe             	mov    %r15,%rsi
  403090:	89 df                	mov    %ebx,%edi
  403092:	e8 82 fb ff ff       	call   402c19 <rio_writen>
  403097:	48 85 c0             	test   %rax,%rax
  40309a:	0f 88 5d 03 00 00    	js     4033fd <submitr+0x54e>
  4030a0:	4c 8d 64 24 40       	lea    0x40(%rsp),%r12
  4030a5:	89 de                	mov    %ebx,%esi
  4030a7:	4c 89 e7             	mov    %r12,%rdi
  4030aa:	e8 22 fb ff ff       	call   402bd1 <rio_readinitb>
  4030af:	48 8d b4 24 50 20 00 	lea    0x2050(%rsp),%rsi
  4030b6:	00 
  4030b7:	ba 00 20 00 00       	mov    $0x2000,%edx
  4030bc:	4c 89 e7             	mov    %r12,%rdi
  4030bf:	e8 3a fc ff ff       	call   402cfe <rio_readlineb>
  4030c4:	48 85 c0             	test   %rax,%rax
  4030c7:	0f 8e 9c 03 00 00    	jle    403469 <submitr+0x5ba>
  4030cd:	48 8d 4c 24 2c       	lea    0x2c(%rsp),%rcx
  4030d2:	48 8d 94 24 50 60 00 	lea    0x6050(%rsp),%rdx
  4030d9:	00 
  4030da:	48 8d bc 24 50 20 00 	lea    0x2050(%rsp),%rdi
  4030e1:	00 
  4030e2:	4c 8d 84 24 50 80 00 	lea    0x8050(%rsp),%r8
  4030e9:	00 
  4030ea:	48 8d 35 4b 17 00 00 	lea    0x174b(%rip),%rsi        # 40483c <trans_char+0xcc>
  4030f1:	b8 00 00 00 00       	mov    $0x0,%eax
  4030f6:	e8 a5 e2 ff ff       	call   4013a0 <__isoc99_sscanf@plt>
  4030fb:	48 8d b4 24 50 20 00 	lea    0x2050(%rsp),%rsi
  403102:	00 
  403103:	b9 03 00 00 00       	mov    $0x3,%ecx
  403108:	48 8d 3d 44 17 00 00 	lea    0x1744(%rip),%rdi        # 404853 <trans_char+0xe3>
  40310f:	f3 a6                	repz cmpsb %es:(%rdi),%ds:(%rsi)
  403111:	0f 97 c0             	seta   %al
  403114:	1c 00                	sbb    $0x0,%al
  403116:	84 c0                	test   %al,%al
  403118:	0f 84 cb 03 00 00    	je     4034e9 <submitr+0x63a>
  40311e:	48 8d b4 24 50 20 00 	lea    0x2050(%rsp),%rsi
  403125:	00 
  403126:	48 8d 7c 24 40       	lea    0x40(%rsp),%rdi
  40312b:	ba 00 20 00 00       	mov    $0x2000,%edx
  403130:	e8 c9 fb ff ff       	call   402cfe <rio_readlineb>
  403135:	48 85 c0             	test   %rax,%rax
  403138:	7f c1                	jg     4030fb <submitr+0x24c>
  40313a:	48 b8 45 72 72 6f 72 	movabs $0x43203a726f727245,%rax
  403141:	3a 20 43 
  403144:	48 ba 6c 69 65 6e 74 	movabs $0x6e7520746e65696c,%rdx
  40314b:	20 75 6e 
  40314e:	48 89 45 00          	mov    %rax,0x0(%rbp)
  403152:	48 89 55 08          	mov    %rdx,0x8(%rbp)
  403156:	48 b8 61 62 6c 65 20 	movabs $0x206f7420656c6261,%rax
  40315d:	74 6f 20 
  403160:	48 ba 72 65 61 64 20 	movabs $0x6165682064616572,%rdx
  403167:	68 65 61 
  40316a:	48 89 45 10          	mov    %rax,0x10(%rbp)
  40316e:	48 89 55 18          	mov    %rdx,0x18(%rbp)
  403172:	48 b8 64 65 72 73 20 	movabs $0x6f72662073726564,%rax
  403179:	66 72 6f 
  40317c:	48 ba 6d 20 41 75 74 	movabs $0x616c6f747541206d,%rdx
  403183:	6f 6c 61 
  403186:	48 89 45 20          	mov    %rax,0x20(%rbp)
  40318a:	48 89 55 28          	mov    %rdx,0x28(%rbp)
  40318e:	48 b8 62 20 73 65 72 	movabs $0x7265767265732062,%rax
  403195:	76 65 72 
  403198:	48 89 45 30          	mov    %rax,0x30(%rbp)
  40319c:	c6 45 38 00          	movb   $0x0,0x38(%rbp)
  4031a0:	89 df                	mov    %ebx,%edi
  4031a2:	e8 59 e1 ff ff       	call   401300 <close@plt>
  4031a7:	b8 ff ff ff ff       	mov    $0xffffffff,%eax
  4031ac:	48 8b 9c 24 58 a0 00 	mov    0xa058(%rsp),%rbx
  4031b3:	00 
  4031b4:	64 48 33 1c 25 28 00 	xor    %fs:0x28,%rbx
  4031bb:	00 00 
  4031bd:	0f 85 96 04 00 00    	jne    403659 <submitr+0x7aa>
  4031c3:	48 81 c4 68 a0 00 00 	add    $0xa068,%rsp
  4031ca:	5b                   	pop    %rbx
  4031cb:	5d                   	pop    %rbp
  4031cc:	41 5c                	pop    %r12
  4031ce:	41 5d                	pop    %r13
  4031d0:	41 5e                	pop    %r14
  4031d2:	41 5f                	pop    %r15
  4031d4:	c3                   	ret    
  4031d5:	48 b8 45 72 72 6f 72 	movabs $0x43203a726f727245,%rax
  4031dc:	3a 20 43 
  4031df:	48 ba 6c 69 65 6e 74 	movabs $0x6e7520746e65696c,%rdx
  4031e6:	20 75 6e 
  4031e9:	48 89 45 00          	mov    %rax,0x0(%rbp)
  4031ed:	48 89 55 08          	mov    %rdx,0x8(%rbp)
  4031f1:	48 b8 61 62 6c 65 20 	movabs $0x206f7420656c6261,%rax
  4031f8:	74 6f 20 
  4031fb:	48 ba 63 72 65 61 74 	movabs $0x7320657461657263,%rdx
  403202:	65 20 73 
  403205:	48 89 45 10          	mov    %rax,0x10(%rbp)
  403209:	48 89 55 18          	mov    %rdx,0x18(%rbp)
  40320d:	c7 45 20 6f 63 6b 65 	movl   $0x656b636f,0x20(%rbp)
  403214:	66 c7 45 24 74 00    	movw   $0x74,0x24(%rbp)
  40321a:	b8 ff ff ff ff       	mov    $0xffffffff,%eax
  40321f:	eb 8b                	jmp    4031ac <submitr+0x2fd>
  403221:	48 b8 45 72 72 6f 72 	movabs $0x44203a726f727245,%rax
  403228:	3a 20 44 
  40322b:	48 ba 4e 53 20 69 73 	movabs $0x6e7520736920534e,%rdx
  403232:	20 75 6e 
  403235:	48 89 45 00          	mov    %rax,0x0(%rbp)
  403239:	48 89 55 08          	mov    %rdx,0x8(%rbp)
  40323d:	48 b8 61 62 6c 65 20 	movabs $0x206f7420656c6261,%rax
  403244:	74 6f 20 
  403247:	48 ba 72 65 73 6f 6c 	movabs $0x2065766c6f736572,%rdx
  40324e:	76 65 20 
  403251:	48 89 45 10          	mov    %rax,0x10(%rbp)
  403255:	48 89 55 18          	mov    %rdx,0x18(%rbp)
  403259:	48 b8 41 75 74 6f 6c 	movabs $0x2062616c6f747541,%rax
  403260:	61 62 20 
  403263:	48 ba 73 65 72 76 65 	movabs $0x6120726576726573,%rdx
  40326a:	72 20 61 
  40326d:	48 89 45 20          	mov    %rax,0x20(%rbp)
  403271:	48 89 55 28          	mov    %rdx,0x28(%rbp)
  403275:	c7 45 30 64 64 72 65 	movl   $0x65726464,0x30(%rbp)
  40327c:	66 c7 45 34 73 73    	movw   $0x7373,0x34(%rbp)
  403282:	c6 45 36 00          	movb   $0x0,0x36(%rbp)
  403286:	89 df                	mov    %ebx,%edi
  403288:	e8 73 e0 ff ff       	call   401300 <close@plt>
  40328d:	b8 ff ff ff ff       	mov    $0xffffffff,%eax
  403292:	e9 15 ff ff ff       	jmp    4031ac <submitr+0x2fd>
  403297:	48 b8 45 72 72 6f 72 	movabs $0x55203a726f727245,%rax
  40329e:	3a 20 55 
  4032a1:	48 ba 6e 61 62 6c 65 	movabs $0x6f7420656c62616e,%rdx
  4032a8:	20 74 6f 
  4032ab:	48 89 45 00          	mov    %rax,0x0(%rbp)
  4032af:	48 89 55 08          	mov    %rdx,0x8(%rbp)
  4032b3:	48 b8 20 63 6f 6e 6e 	movabs $0x7463656e6e6f6320,%rax
  4032ba:	65 63 74 
  4032bd:	48 ba 20 74 6f 20 74 	movabs $0x20656874206f7420,%rdx
  4032c4:	68 65 20 
  4032c7:	48 89 45 10          	mov    %rax,0x10(%rbp)
  4032cb:	48 89 55 18          	mov    %rdx,0x18(%rbp)
  4032cf:	48 b8 41 75 74 6f 6c 	movabs $0x2062616c6f747541,%rax
  4032d6:	61 62 20 
  4032d9:	48 89 45 20          	mov    %rax,0x20(%rbp)
  4032dd:	c7 45 28 73 65 72 76 	movl   $0x76726573,0x28(%rbp)
  4032e4:	66 c7 45 2c 65 72    	movw   $0x7265,0x2c(%rbp)
  4032ea:	c6 45 2e 00          	movb   $0x0,0x2e(%rbp)
  4032ee:	89 df                	mov    %ebx,%edi
  4032f0:	e8 0b e0 ff ff       	call   401300 <close@plt>
  4032f5:	b8 ff ff ff ff       	mov    $0xffffffff,%eax
  4032fa:	e9 ad fe ff ff       	jmp    4031ac <submitr+0x2fd>
  4032ff:	48 b8 45 72 72 6f 72 	movabs $0x52203a726f727245,%rax
  403306:	3a 20 52 
  403309:	48 ba 65 73 75 6c 74 	movabs $0x747320746c757365,%rdx
  403310:	20 73 74 
  403313:	48 89 45 00          	mov    %rax,0x0(%rbp)
  403317:	48 89 55 08          	mov    %rdx,0x8(%rbp)
  40331b:	48 b8 72 69 6e 67 20 	movabs $0x6f6f7420676e6972,%rax
  403322:	74 6f 6f 
  403325:	48 ba 20 6c 61 72 67 	movabs $0x202e656772616c20,%rdx
  40332c:	65 2e 20 
  40332f:	48 89 45 10          	mov    %rax,0x10(%rbp)
  403333:	48 89 55 18          	mov    %rdx,0x18(%rbp)
  403337:	48 b8 49 6e 63 72 65 	movabs $0x6573616572636e49,%rax
  40333e:	61 73 65 
  403341:	48 ba 20 53 55 42 4d 	movabs $0x5254494d42555320,%rdx
  403348:	49 54 52 
  40334b:	48 89 45 20          	mov    %rax,0x20(%rbp)
  40334f:	48 89 55 28          	mov    %rdx,0x28(%rbp)
  403353:	48 b8 5f 4d 41 58 42 	movabs $0x46554258414d5f,%rax
  40335a:	55 46 00 
  40335d:	48 89 45 30          	mov    %rax,0x30(%rbp)
  403361:	89 df                	mov    %ebx,%edi
  403363:	e8 98 df ff ff       	call   401300 <close@plt>
  403368:	b8 ff ff ff ff       	mov    $0xffffffff,%eax
  40336d:	e9 3a fe ff ff       	jmp    4031ac <submitr+0x2fd>
  403372:	48 b8 45 72 72 6f 72 	movabs $0x52203a726f727245,%rax
  403379:	3a 20 52 
  40337c:	48 ba 65 73 75 6c 74 	movabs $0x747320746c757365,%rdx
  403383:	20 73 74 
  403386:	48 89 45 00          	mov    %rax,0x0(%rbp)
  40338a:	48 89 55 08          	mov    %rdx,0x8(%rbp)
  40338e:	48 b8 72 69 6e 67 20 	movabs $0x6e6f6320676e6972,%rax
  403395:	63 6f 6e 
  403398:	48 ba 74 61 69 6e 73 	movabs $0x6e6120736e696174,%rdx
  40339f:	20 61 6e 
  4033a2:	48 89 45 10          	mov    %rax,0x10(%rbp)
  4033a6:	48 89 55 18          	mov    %rdx,0x18(%rbp)
  4033aa:	48 b8 20 69 6c 6c 65 	movabs $0x6c6167656c6c6920,%rax
  4033b1:	67 61 6c 
  4033b4:	48 ba 20 6f 72 20 75 	movabs $0x72706e7520726f20,%rdx
  4033bb:	6e 70 72 
  4033be:	48 89 45 20          	mov    %rax,0x20(%rbp)
  4033c2:	48 89 55 28          	mov    %rdx,0x28(%rbp)
  4033c6:	48 b8 69 6e 74 61 62 	movabs $0x20656c6261746e69,%rax
  4033cd:	6c 65 20 
  4033d0:	48 ba 63 68 61 72 61 	movabs $0x6574636172616863,%rdx
  4033d7:	63 74 65 
  4033da:	48 89 45 30          	mov    %rax,0x30(%rbp)
  4033de:	48 89 55 38          	mov    %rdx,0x38(%rbp)
  4033e2:	66 c7 45 40 72 2e    	movw   $0x2e72,0x40(%rbp)
  4033e8:	c6 45 42 00          	movb   $0x0,0x42(%rbp)
  4033ec:	89 df                	mov    %ebx,%edi
  4033ee:	e8 0d df ff ff       	call   401300 <close@plt>
  4033f3:	b8 ff ff ff ff       	mov    $0xffffffff,%eax
  4033f8:	e9 af fd ff ff       	jmp    4031ac <submitr+0x2fd>
  4033fd:	48 b8 45 72 72 6f 72 	movabs $0x43203a726f727245,%rax
  403404:	3a 20 43 
  403407:	48 ba 6c 69 65 6e 74 	movabs $0x6e7520746e65696c,%rdx
  40340e:	20 75 6e 
  403411:	48 89 45 00          	mov    %rax,0x0(%rbp)
  403415:	48 89 55 08          	mov    %rdx,0x8(%rbp)
  403419:	48 b8 61 62 6c 65 20 	movabs $0x206f7420656c6261,%rax
  403420:	74 6f 20 
  403423:	48 ba 77 72 69 74 65 	movabs $0x6f74206574697277,%rdx
  40342a:	20 74 6f 
  40342d:	48 89 45 10          	mov    %rax,0x10(%rbp)
  403431:	48 89 55 18          	mov    %rdx,0x18(%rbp)
  403435:	48 b8 20 74 68 65 20 	movabs $0x7475412065687420,%rax
  40343c:	41 75 74 
  40343f:	48 ba 6f 6c 61 62 20 	movabs $0x7265732062616c6f,%rdx
  403446:	73 65 72 
  403449:	48 89 45 20          	mov    %rax,0x20(%rbp)
  40344d:	48 89 55 28          	mov    %rdx,0x28(%rbp)
  403451:	c7 45 30 76 65 72 00 	movl   $0x726576,0x30(%rbp)
  403458:	89 df                	mov    %ebx,%edi
  40345a:	e8 a1 de ff ff       	call   401300 <close@plt>
  40345f:	b8 ff ff ff ff       	mov    $0xffffffff,%eax
  403464:	e9 43 fd ff ff       	jmp    4031ac <submitr+0x2fd>
  403469:	48 b8 45 72 72 6f 72 	movabs $0x43203a726f727245,%rax
  403470:	3a 20 43 
  403473:	48 ba 6c 69 65 6e 74 	movabs $0x6e7520746e65696c,%rdx
  40347a:	20 75 6e 
  40347d:	48 89 45 00          	mov    %rax,0x0(%rbp)
  403481:	48 89 55 08          	mov    %rdx,0x8(%rbp)
  403485:	48 b8 61 62 6c 65 20 	movabs $0x206f7420656c6261,%rax
  40348c:	74 6f 20 
  40348f:	48 ba 72 65 61 64 20 	movabs $0x7269662064616572,%rdx
  403496:	66 69 72 
  403499:	48 89 45 10          	mov    %rax,0x10(%rbp)
  40349d:	48 89 55 18          	mov    %rdx,0x18(%rbp)
  4034a1:	48 b8 73 74 20 68 65 	movabs $0x6564616568207473,%rax
  4034a8:	61 64 65 
  4034ab:	48 ba 72 20 66 72 6f 	movabs $0x41206d6f72662072,%rdx
  4034b2:	6d 20 41 
  4034b5:	48 89 45 20          	mov    %rax,0x20(%rbp)
  4034b9:	48 89 55 28          	mov    %rdx,0x28(%rbp)
  4034bd:	48 b8 75 74 6f 6c 61 	movabs $0x732062616c6f7475,%rax
  4034c4:	62 20 73 
  4034c7:	48 89 45 30          	mov    %rax,0x30(%rbp)
  4034cb:	c7 45 38 65 72 76 65 	movl   $0x65767265,0x38(%rbp)
  4034d2:	66 c7 45 3c 72 00    	movw   $0x72,0x3c(%rbp)
  4034d8:	89 df                	mov    %ebx,%edi
  4034da:	e8 21 de ff ff       	call   401300 <close@plt>
  4034df:	b8 ff ff ff ff       	mov    $0xffffffff,%eax
  4034e4:	e9 c3 fc ff ff       	jmp    4031ac <submitr+0x2fd>
  4034e9:	48 8d b4 24 50 20 00 	lea    0x2050(%rsp),%rsi
  4034f0:	00 
  4034f1:	48 8d 7c 24 40       	lea    0x40(%rsp),%rdi
  4034f6:	ba 00 20 00 00       	mov    $0x2000,%edx
  4034fb:	e8 fe f7 ff ff       	call   402cfe <rio_readlineb>
  403500:	48 85 c0             	test   %rax,%rax
  403503:	0f 8e 96 00 00 00    	jle    40359f <submitr+0x6f0>
  403509:	44 8b 44 24 2c       	mov    0x2c(%rsp),%r8d
  40350e:	41 81 f8 c8 00 00 00 	cmp    $0xc8,%r8d
  403515:	0f 85 05 01 00 00    	jne    403620 <submitr+0x771>
  40351b:	48 8d b4 24 50 20 00 	lea    0x2050(%rsp),%rsi
  403522:	00 
  403523:	48 89 ef             	mov    %rbp,%rdi
  403526:	e8 75 dd ff ff       	call   4012a0 <strcpy@plt>
  40352b:	89 df                	mov    %ebx,%edi
  40352d:	e8 ce dd ff ff       	call   401300 <close@plt>
  403532:	b9 04 00 00 00       	mov    $0x4,%ecx
  403537:	48 8d 3d 0f 13 00 00 	lea    0x130f(%rip),%rdi        # 40484d <trans_char+0xdd>
  40353e:	48 89 ee             	mov    %rbp,%rsi
  403541:	f3 a6                	repz cmpsb %es:(%rdi),%ds:(%rsi)
  403543:	0f 97 c0             	seta   %al
  403546:	1c 00                	sbb    $0x0,%al
  403548:	0f be c0             	movsbl %al,%eax
  40354b:	85 c0                	test   %eax,%eax
  40354d:	0f 84 59 fc ff ff    	je     4031ac <submitr+0x2fd>
  403553:	b9 05 00 00 00       	mov    $0x5,%ecx
  403558:	48 8d 3d f2 12 00 00 	lea    0x12f2(%rip),%rdi        # 404851 <trans_char+0xe1>
  40355f:	48 89 ee             	mov    %rbp,%rsi
  403562:	f3 a6                	repz cmpsb %es:(%rdi),%ds:(%rsi)
  403564:	0f 97 c0             	seta   %al
  403567:	1c 00                	sbb    $0x0,%al
  403569:	0f be c0             	movsbl %al,%eax
  40356c:	85 c0                	test   %eax,%eax
  40356e:	0f 84 38 fc ff ff    	je     4031ac <submitr+0x2fd>
  403574:	b9 03 00 00 00       	mov    $0x3,%ecx
  403579:	48 8d 3d d6 12 00 00 	lea    0x12d6(%rip),%rdi        # 404856 <trans_char+0xe6>
  403580:	48 89 ee             	mov    %rbp,%rsi
  403583:	f3 a6                	repz cmpsb %es:(%rdi),%ds:(%rsi)
  403585:	0f 97 c0             	seta   %al
  403588:	1c 00                	sbb    $0x0,%al
  40358a:	0f be c0             	movsbl %al,%eax
  40358d:	85 c0                	test   %eax,%eax
  40358f:	0f 84 17 fc ff ff    	je     4031ac <submitr+0x2fd>
  403595:	b8 ff ff ff ff       	mov    $0xffffffff,%eax
  40359a:	e9 0d fc ff ff       	jmp    4031ac <submitr+0x2fd>
  40359f:	48 b8 45 72 72 6f 72 	movabs $0x43203a726f727245,%rax
  4035a6:	3a 20 43 
  4035a9:	48 ba 6c 69 65 6e 74 	movabs $0x6e7520746e65696c,%rdx
  4035b0:	20 75 6e 
  4035b3:	48 89 45 00          	mov    %rax,0x0(%rbp)
  4035b7:	48 89 55 08          	mov    %rdx,0x8(%rbp)
  4035bb:	48 b8 61 62 6c 65 20 	movabs $0x206f7420656c6261,%rax
  4035c2:	74 6f 20 
  4035c5:	48 ba 72 65 61 64 20 	movabs $0x6174732064616572,%rdx
  4035cc:	73 74 61 
  4035cf:	48 89 45 10          	mov    %rax,0x10(%rbp)
  4035d3:	48 89 55 18          	mov    %rdx,0x18(%rbp)
  4035d7:	48 b8 74 75 73 20 6d 	movabs $0x7373656d20737574,%rax
  4035de:	65 73 73 
  4035e1:	48 ba 61 67 65 20 66 	movabs $0x6d6f726620656761,%rdx
  4035e8:	72 6f 6d 
  4035eb:	48 89 45 20          	mov    %rax,0x20(%rbp)
  4035ef:	48 89 55 28          	mov    %rdx,0x28(%rbp)
  4035f3:	48 b8 20 41 75 74 6f 	movabs $0x62616c6f74754120,%rax
  4035fa:	6c 61 62 
  4035fd:	48 ba 20 73 65 72 76 	movabs $0x72657672657320,%rdx
  403604:	65 72 00 
  403607:	48 89 45 30          	mov    %rax,0x30(%rbp)
  40360b:	48 89 55 38          	mov    %rdx,0x38(%rbp)
  40360f:	89 df                	mov    %ebx,%edi
  403611:	e8 ea dc ff ff       	call   401300 <close@plt>
  403616:	b8 ff ff ff ff       	mov    $0xffffffff,%eax
  40361b:	e9 8c fb ff ff       	jmp    4031ac <submitr+0x2fd>
  403620:	4c 8d 8c 24 50 80 00 	lea    0x8050(%rsp),%r9
  403627:	00 
  403628:	48 8d 0d d9 11 00 00 	lea    0x11d9(%rip),%rcx        # 404808 <trans_char+0x98>
  40362f:	48 c7 c2 ff ff ff ff 	mov    $0xffffffffffffffff,%rdx
  403636:	be 01 00 00 00       	mov    $0x1,%esi
  40363b:	48 89 ef             	mov    %rbp,%rdi
  40363e:	b8 00 00 00 00       	mov    $0x0,%eax
  403643:	e8 08 de ff ff       	call   401450 <__sprintf_chk@plt>
  403648:	89 df                	mov    %ebx,%edi
  40364a:	e8 b1 dc ff ff       	call   401300 <close@plt>
  40364f:	b8 ff ff ff ff       	mov    $0xffffffff,%eax
  403654:	e9 53 fb ff ff       	jmp    4031ac <submitr+0x2fd>
  403659:	e8 51 f3 ff ff       	call   4029af <__stack_chk_fail>

000000000040365e <init_timeout>:
  40365e:	f3 0f 1e fa          	endbr64 
  403662:	85 ff                	test   %edi,%edi
  403664:	74 26                	je     40368c <init_timeout+0x2e>
  403666:	53                   	push   %rbx
  403667:	89 fb                	mov    %edi,%ebx
  403669:	78 1a                	js     403685 <init_timeout+0x27>
  40366b:	48 8d 35 71 f5 ff ff 	lea    -0xa8f(%rip),%rsi        # 402be3 <sigalrm_handler>
  403672:	bf 0e 00 00 00       	mov    $0xe,%edi
  403677:	e8 b4 dc ff ff       	call   401330 <signal@plt>
  40367c:	89 df                	mov    %ebx,%edi
  40367e:	e8 6d dc ff ff       	call   4012f0 <alarm@plt>
  403683:	5b                   	pop    %rbx
  403684:	c3                   	ret    
  403685:	bb 00 00 00 00       	mov    $0x0,%ebx
  40368a:	eb df                	jmp    40366b <init_timeout+0xd>
  40368c:	c3                   	ret    

000000000040368d <init_driver>:
  40368d:	f3 0f 1e fa          	endbr64 
  403691:	41 54                	push   %r12
  403693:	55                   	push   %rbp
  403694:	53                   	push   %rbx
  403695:	48 83 ec 20          	sub    $0x20,%rsp
  403699:	48 89 fd             	mov    %rdi,%rbp
  40369c:	64 48 8b 04 25 28 00 	mov    %fs:0x28,%rax
  4036a3:	00 00 
  4036a5:	48 89 44 24 18       	mov    %rax,0x18(%rsp)
  4036aa:	31 c0                	xor    %eax,%eax
  4036ac:	be 01 00 00 00       	mov    $0x1,%esi
  4036b1:	bf 0d 00 00 00       	mov    $0xd,%edi
  4036b6:	e8 75 dc ff ff       	call   401330 <signal@plt>
  4036bb:	be 01 00 00 00       	mov    $0x1,%esi
  4036c0:	bf 1d 00 00 00       	mov    $0x1d,%edi
  4036c5:	e8 66 dc ff ff       	call   401330 <signal@plt>
  4036ca:	be 01 00 00 00       	mov    $0x1,%esi
  4036cf:	bf 1d 00 00 00       	mov    $0x1d,%edi
  4036d4:	e8 57 dc ff ff       	call   401330 <signal@plt>
  4036d9:	ba 00 00 00 00       	mov    $0x0,%edx
  4036de:	be 01 00 00 00       	mov    $0x1,%esi
  4036e3:	bf 02 00 00 00       	mov    $0x2,%edi
  4036e8:	e8 73 dd ff ff       	call   401460 <socket@plt>
  4036ed:	85 c0                	test   %eax,%eax
  4036ef:	0f 88 9c 00 00 00    	js     403791 <init_driver+0x104>
  4036f5:	89 c3                	mov    %eax,%ebx
  4036f7:	48 8d 3d 5b 11 00 00 	lea    0x115b(%rip),%rdi        # 404859 <trans_char+0xe9>
  4036fe:	e8 3d dc ff ff       	call   401340 <gethostbyname@plt>
  403703:	48 85 c0             	test   %rax,%rax
  403706:	0f 84 d1 00 00 00    	je     4037dd <init_driver+0x150>
  40370c:	49 89 e4             	mov    %rsp,%r12
  40370f:	48 c7 04 24 00 00 00 	movq   $0x0,(%rsp)
  403716:	00 
  403717:	48 c7 44 24 08 00 00 	movq   $0x0,0x8(%rsp)
  40371e:	00 00 
  403720:	66 c7 04 24 02 00    	movw   $0x2,(%rsp)
  403726:	48 63 50 14          	movslq 0x14(%rax),%rdx
  40372a:	48 8b 40 18          	mov    0x18(%rax),%rax
  40372e:	48 8b 30             	mov    (%rax),%rsi
  403731:	48 8d 7c 24 04       	lea    0x4(%rsp),%rdi
  403736:	b9 0c 00 00 00       	mov    $0xc,%ecx
  40373b:	e8 10 dc ff ff       	call   401350 <__memmove_chk@plt>
  403740:	66 c7 44 24 02 30 39 	movw   $0x3930,0x2(%rsp)
  403747:	ba 10 00 00 00       	mov    $0x10,%edx
  40374c:	4c 89 e6             	mov    %r12,%rsi
  40374f:	89 df                	mov    %ebx,%edi
  403751:	e8 ca dc ff ff       	call   401420 <connect@plt>
  403756:	85 c0                	test   %eax,%eax
  403758:	0f 88 e7 00 00 00    	js     403845 <init_driver+0x1b8>
  40375e:	89 df                	mov    %ebx,%edi
  403760:	e8 9b db ff ff       	call   401300 <close@plt>
  403765:	66 c7 45 00 4f 4b    	movw   $0x4b4f,0x0(%rbp)
  40376b:	c6 45 02 00          	movb   $0x0,0x2(%rbp)
  40376f:	b8 00 00 00 00       	mov    $0x0,%eax
  403774:	48 8b 4c 24 18       	mov    0x18(%rsp),%rcx
  403779:	64 48 33 0c 25 28 00 	xor    %fs:0x28,%rcx
  403780:	00 00 
  403782:	0f 85 10 01 00 00    	jne    403898 <init_driver+0x20b>
  403788:	48 83 c4 20          	add    $0x20,%rsp
  40378c:	5b                   	pop    %rbx
  40378d:	5d                   	pop    %rbp
  40378e:	41 5c                	pop    %r12
  403790:	c3                   	ret    
  403791:	48 b8 45 72 72 6f 72 	movabs $0x43203a726f727245,%rax
  403798:	3a 20 43 
  40379b:	48 ba 6c 69 65 6e 74 	movabs $0x6e7520746e65696c,%rdx
  4037a2:	20 75 6e 
  4037a5:	48 89 45 00          	mov    %rax,0x0(%rbp)
  4037a9:	48 89 55 08          	mov    %rdx,0x8(%rbp)
  4037ad:	48 b8 61 62 6c 65 20 	movabs $0x206f7420656c6261,%rax
  4037b4:	74 6f 20 
  4037b7:	48 ba 63 72 65 61 74 	movabs $0x7320657461657263,%rdx
  4037be:	65 20 73 
  4037c1:	48 89 45 10          	mov    %rax,0x10(%rbp)
  4037c5:	48 89 55 18          	mov    %rdx,0x18(%rbp)
  4037c9:	c7 45 20 6f 63 6b 65 	movl   $0x656b636f,0x20(%rbp)
  4037d0:	66 c7 45 24 74 00    	movw   $0x74,0x24(%rbp)
  4037d6:	b8 ff ff ff ff       	mov    $0xffffffff,%eax
  4037db:	eb 97                	jmp    403774 <init_driver+0xe7>
  4037dd:	48 b8 45 72 72 6f 72 	movabs $0x44203a726f727245,%rax
  4037e4:	3a 20 44 
  4037e7:	48 ba 4e 53 20 69 73 	movabs $0x6e7520736920534e,%rdx
  4037ee:	20 75 6e 
  4037f1:	48 89 45 00          	mov    %rax,0x0(%rbp)
  4037f5:	48 89 55 08          	mov    %rdx,0x8(%rbp)
  4037f9:	48 b8 61 62 6c 65 20 	movabs $0x206f7420656c6261,%rax
  403800:	74 6f 20 
  403803:	48 ba 72 65 73 6f 6c 	movabs $0x2065766c6f736572,%rdx
  40380a:	76 65 20 
  40380d:	48 89 45 10          	mov    %rax,0x10(%rbp)
  403811:	48 89 55 18          	mov    %rdx,0x18(%rbp)
  403815:	48 b8 73 65 72 76 65 	movabs $0x6120726576726573,%rax
  40381c:	72 20 61 
  40381f:	48 89 45 20          	mov    %rax,0x20(%rbp)
  403823:	c7 45 28 64 64 72 65 	movl   $0x65726464,0x28(%rbp)
  40382a:	66 c7 45 2c 73 73    	movw   $0x7373,0x2c(%rbp)
  403830:	c6 45 2e 00          	movb   $0x0,0x2e(%rbp)
  403834:	89 df                	mov    %ebx,%edi
  403836:	e8 c5 da ff ff       	call   401300 <close@plt>
  40383b:	b8 ff ff ff ff       	mov    $0xffffffff,%eax
  403840:	e9 2f ff ff ff       	jmp    403774 <init_driver+0xe7>
  403845:	48 b8 45 72 72 6f 72 	movabs $0x55203a726f727245,%rax
  40384c:	3a 20 55 
  40384f:	48 ba 6e 61 62 6c 65 	movabs $0x6f7420656c62616e,%rdx
  403856:	20 74 6f 
  403859:	48 89 45 00          	mov    %rax,0x0(%rbp)
  40385d:	48 89 55 08          	mov    %rdx,0x8(%rbp)
  403861:	48 b8 20 63 6f 6e 6e 	movabs $0x7463656e6e6f6320,%rax
  403868:	65 63 74 
  40386b:	48 ba 20 74 6f 20 73 	movabs $0x76726573206f7420,%rdx
  403872:	65 72 76 
  403875:	48 89 45 10          	mov    %rax,0x10(%rbp)
  403879:	48 89 55 18          	mov    %rdx,0x18(%rbp)
  40387d:	66 c7 45 20 65 72    	movw   $0x7265,0x20(%rbp)
  403883:	c6 45 22 00          	movb   $0x0,0x22(%rbp)
  403887:	89 df                	mov    %ebx,%edi
  403889:	e8 72 da ff ff       	call   401300 <close@plt>
  40388e:	b8 ff ff ff ff       	mov    $0xffffffff,%eax
  403893:	e9 dc fe ff ff       	jmp    403774 <init_driver+0xe7>
  403898:	e8 12 f1 ff ff       	call   4029af <__stack_chk_fail>

000000000040389d <driver_post>:
  40389d:	f3 0f 1e fa          	endbr64 
  4038a1:	53                   	push   %rbx
  4038a2:	4c 89 cb             	mov    %r9,%rbx
  4038a5:	45 85 c0             	test   %r8d,%r8d
  4038a8:	75 18                	jne    4038c2 <driver_post+0x25>
  4038aa:	48 85 ff             	test   %rdi,%rdi
  4038ad:	74 05                	je     4038b4 <driver_post+0x17>
  4038af:	80 3f 00             	cmpb   $0x0,(%rdi)
  4038b2:	75 37                	jne    4038eb <driver_post+0x4e>
  4038b4:	66 c7 03 4f 4b       	movw   $0x4b4f,(%rbx)
  4038b9:	c6 43 02 00          	movb   $0x0,0x2(%rbx)
  4038bd:	44 89 c0             	mov    %r8d,%eax
  4038c0:	5b                   	pop    %rbx
  4038c1:	c3                   	ret    
  4038c2:	48 89 ca             	mov    %rcx,%rdx
  4038c5:	48 8d 35 9d 0f 00 00 	lea    0xf9d(%rip),%rsi        # 404869 <trans_char+0xf9>
  4038cc:	bf 01 00 00 00       	mov    $0x1,%edi
  4038d1:	b8 00 00 00 00       	mov    $0x0,%eax
  4038d6:	e8 e5 da ff ff       	call   4013c0 <__printf_chk@plt>
  4038db:	66 c7 03 4f 4b       	movw   $0x4b4f,(%rbx)
  4038e0:	c6 43 02 00          	movb   $0x0,0x2(%rbx)
  4038e4:	b8 00 00 00 00       	mov    $0x0,%eax
  4038e9:	eb d5                	jmp    4038c0 <driver_post+0x23>
  4038eb:	48 83 ec 08          	sub    $0x8,%rsp
  4038ef:	41 51                	push   %r9
  4038f1:	49 89 c9             	mov    %rcx,%r9
  4038f4:	49 89 d0             	mov    %rdx,%r8
  4038f7:	48 89 f9             	mov    %rdi,%rcx
  4038fa:	48 89 f2             	mov    %rsi,%rdx
  4038fd:	be 39 30 00 00       	mov    $0x3039,%esi
  403902:	48 8d 3d 50 0f 00 00 	lea    0xf50(%rip),%rdi        # 404859 <trans_char+0xe9>
  403909:	e8 a1 f5 ff ff       	call   402eaf <submitr>
  40390e:	48 83 c4 10          	add    $0x10,%rsp
  403912:	eb ac                	jmp    4038c0 <driver_post+0x23>

0000000000403914 <check>:
  403914:	f3 0f 1e fa          	endbr64 
  403918:	89 f8                	mov    %edi,%eax
  40391a:	c1 e8 1c             	shr    $0x1c,%eax
  40391d:	74 1d                	je     40393c <check+0x28>
  40391f:	b9 00 00 00 00       	mov    $0x0,%ecx
  403924:	83 f9 1f             	cmp    $0x1f,%ecx
  403927:	7f 0d                	jg     403936 <check+0x22>
  403929:	89 f8                	mov    %edi,%eax
  40392b:	d3 e8                	shr    %cl,%eax
  40392d:	3c 0a                	cmp    $0xa,%al
  40392f:	74 11                	je     403942 <check+0x2e>
  403931:	83 c1 08             	add    $0x8,%ecx
  403934:	eb ee                	jmp    403924 <check+0x10>
  403936:	b8 01 00 00 00       	mov    $0x1,%eax
  40393b:	c3                   	ret    
  40393c:	b8 00 00 00 00       	mov    $0x0,%eax
  403941:	c3                   	ret    
  403942:	b8 00 00 00 00       	mov    $0x0,%eax
  403947:	c3                   	ret    

0000000000403948 <gencookie>:
  403948:	f3 0f 1e fa          	endbr64 
  40394c:	53                   	push   %rbx
  40394d:	83 c7 01             	add    $0x1,%edi
  403950:	e8 1b d9 ff ff       	call   401270 <srandom@plt>
  403955:	e8 36 da ff ff       	call   401390 <random@plt>
  40395a:	48 89 c7             	mov    %rax,%rdi
  40395d:	89 c3                	mov    %eax,%ebx
  40395f:	e8 b0 ff ff ff       	call   403914 <check>
  403964:	85 c0                	test   %eax,%eax
  403966:	74 ed                	je     403955 <gencookie+0xd>
  403968:	89 d8                	mov    %ebx,%eax
  40396a:	5b                   	pop    %rbx
  40396b:	c3                   	ret    
  40396c:	0f 1f 40 00          	nopl   0x0(%rax)

0000000000403970 <__libc_csu_init>:
  403970:	f3 0f 1e fa          	endbr64 
  403974:	41 57                	push   %r15
  403976:	4c 8d 3d 93 34 00 00 	lea    0x3493(%rip),%r15        # 406e10 <__frame_dummy_init_array_entry>
  40397d:	41 56                	push   %r14
  40397f:	49 89 d6             	mov    %rdx,%r14
  403982:	41 55                	push   %r13
  403984:	49 89 f5             	mov    %rsi,%r13
  403987:	41 54                	push   %r12
  403989:	41 89 fc             	mov    %edi,%r12d
  40398c:	55                   	push   %rbp
  40398d:	48 8d 2d 84 34 00 00 	lea    0x3484(%rip),%rbp        # 406e18 <__do_global_dtors_aux_fini_array_entry>
  403994:	53                   	push   %rbx
  403995:	4c 29 fd             	sub    %r15,%rbp
  403998:	48 83 ec 08          	sub    $0x8,%rsp
  40399c:	e8 5f d6 ff ff       	call   401000 <_init>
  4039a1:	48 c1 fd 03          	sar    $0x3,%rbp
  4039a5:	74 1f                	je     4039c6 <__libc_csu_init+0x56>
  4039a7:	31 db                	xor    %ebx,%ebx
  4039a9:	0f 1f 80 00 00 00 00 	nopl   0x0(%rax)
  4039b0:	4c 89 f2             	mov    %r14,%rdx
  4039b3:	4c 89 ee             	mov    %r13,%rsi
  4039b6:	44 89 e7             	mov    %r12d,%edi
  4039b9:	41 ff 14 df          	call   *(%r15,%rbx,8)
  4039bd:	48 83 c3 01          	add    $0x1,%rbx
  4039c1:	48 39 dd             	cmp    %rbx,%rbp
  4039c4:	75 ea                	jne    4039b0 <__libc_csu_init+0x40>
  4039c6:	48 83 c4 08          	add    $0x8,%rsp
  4039ca:	5b                   	pop    %rbx
  4039cb:	5d                   	pop    %rbp
  4039cc:	41 5c                	pop    %r12
  4039ce:	41 5d                	pop    %r13
  4039d0:	41 5e                	pop    %r14
  4039d2:	41 5f                	pop    %r15
  4039d4:	c3                   	ret    
  4039d5:	66 66 2e 0f 1f 84 00 	data16 cs nopw 0x0(%rax,%rax,1)
  4039dc:	00 00 00 00 

00000000004039e0 <__libc_csu_fini>:
  4039e0:	f3 0f 1e fa          	endbr64 
  4039e4:	c3                   	ret    

Disassembly of section .fini:

00000000004039e8 <_fini>:
  4039e8:	f3 0f 1e fa          	endbr64 
  4039ec:	48 83 ec 08          	sub    $0x8,%rsp
  4039f0:	48 83 c4 08          	add    $0x8,%rsp
  4039f4:	c3                   	ret    
